Archive member included to satisfy reference by file (symbol)

c:/program files/microchip/xc32/v2.41/bin/bin/../../lib/gcc/pic32c/6.2.1/../../../../pic32c/lib\libpic32c.a(data_init.o)
                              build/sam_d21_xpro_winc1500/production/_ext/281389274/startup_xc32.o (__pic32c_data_initialization)
c:/program files/microchip/xc32/v2.41/bin/bin/../../lib/gcc/pic32c/6.2.1\libgcc.a(_udivsi3.o)
                              build/sam_d21_xpro_winc1500/production/_ext/39655908/inet_ntop.o (__aeabi_uidiv)
c:/program files/microchip/xc32/v2.41/bin/bin/../../lib/gcc/pic32c/6.2.1\libgcc.a(_divsi3.o)
                              build/sam_d21_xpro_winc1500/production/_ext/1751631207/sys_time.o (__aeabi_idiv)
c:/program files/microchip/xc32/v2.41/bin/bin/../../lib/gcc/pic32c/6.2.1\libgcc.a(_dvmd_tls.o)
                              c:/program files/microchip/xc32/v2.41/bin/bin/../../lib/gcc/pic32c/6.2.1\libgcc.a(_udivsi3.o) (__aeabi_idiv0)
c:/program files/microchip/xc32/v2.41/bin/bin/../../lib/gcc/pic32c/6.2.1\libgcc.a(_aeabi_uldivmod.o)
                              build/sam_d21_xpro_winc1500/production/_ext/1242531425/plib_sercom5_usart.o (__aeabi_uldivmod)
c:/program files/microchip/xc32/v2.41/bin/bin/../../lib/gcc/pic32c/6.2.1\libgcc.a(_muldi3.o)
                              build/sam_d21_xpro_winc1500/production/_ext/1242531425/plib_sercom5_usart.o (__aeabi_lmul)
c:/program files/microchip/xc32/v2.41/bin/bin/../../lib/gcc/pic32c/6.2.1\libgcc.a(_udivmoddi4.o)
                              c:/program files/microchip/xc32/v2.41/bin/bin/../../lib/gcc/pic32c/6.2.1\libgcc.a(_aeabi_uldivmod.o) (__udivmoddi4)
c:/program files/microchip/xc32/v2.41/bin/bin/../../lib/gcc/pic32c/6.2.1\libgcc.a(_lshrdi3.o)
                              c:/program files/microchip/xc32/v2.41/bin/bin/../../lib/gcc/pic32c/6.2.1\libgcc.a(_udivmoddi4.o) (__aeabi_llsr)
c:/program files/microchip/xc32/v2.41/bin/bin/../../lib/gcc/pic32c/6.2.1\libgcc.a(_ashldi3.o)
                              c:/program files/microchip/xc32/v2.41/bin/bin/../../lib/gcc/pic32c/6.2.1\libgcc.a(_udivmoddi4.o) (__aeabi_llsl)
c:/program files/microchip/xc32/v2.41/bin/bin/../../lib/gcc/pic32c/6.2.1\libgcc.a(_clzdi2.o)
                              c:/program files/microchip/xc32/v2.41/bin/bin/../../lib/gcc/pic32c/6.2.1\libgcc.a(_udivmoddi4.o) (__clzdi2)
c:/program files/microchip/xc32/v2.41/bin/bin/../../lib/gcc/pic32c/6.2.1\libgcc.a(_clzsi2.o)
                              c:/program files/microchip/xc32/v2.41/bin/bin/../../lib/gcc/pic32c/6.2.1\libgcc.a(_clzdi2.o) (__clzsi2)
c:/program files/microchip/xc32/v2.41/bin/bin/../../lib/gcc/pic32c/6.2.1/../../../../pic32c/lib\libc_nano.a(lib_a-gmtime.o)
                              build/sam_d21_xpro_winc1500/production/_ext/2003669979/wdrv_winc_systime.o (gmtime)
c:/program files/microchip/xc32/v2.41/bin/bin/../../lib/gcc/pic32c/6.2.1/../../../../pic32c/lib\libc_nano.a(lib_a-gmtime_r.o)
                              c:/program files/microchip/xc32/v2.41/bin/bin/../../lib/gcc/pic32c/6.2.1/../../../../pic32c/lib\libc_nano.a(lib_a-gmtime.o) (gmtime_r)
c:/program files/microchip/xc32/v2.41/bin/bin/../../lib/gcc/pic32c/6.2.1/../../../../pic32c/lib\libc_nano.a(lib_a-impure.o)
                              c:/program files/microchip/xc32/v2.41/bin/bin/../../lib/gcc/pic32c/6.2.1/../../../../pic32c/lib\libc_nano.a(lib_a-gmtime.o) (_impure_ptr)
c:/program files/microchip/xc32/v2.41/bin/bin/../../lib/gcc/pic32c/6.2.1/../../../../pic32c/lib\libc_nano.a(lib_a-init.o)
                              build/sam_d21_xpro_winc1500/production/_ext/281389274/startup_xc32.o (__libc_init_array)
c:/program files/microchip/xc32/v2.41/bin/bin/../../lib/gcc/pic32c/6.2.1/../../../../pic32c/lib\libc_nano.a(lib_a-malloc.o)
                              build/sam_d21_xpro_winc1500/production/_ext/386821479/m2m_wifi.o (malloc)
c:/program files/microchip/xc32/v2.41/bin/bin/../../lib/gcc/pic32c/6.2.1/../../../../pic32c/lib\libc_nano.a(lib_a-memcpy-stub.o)
                              build/sam_d21_xpro_winc1500/production/_ext/386821479/m2m_wifi.o (memcpy)
c:/program files/microchip/xc32/v2.41/bin/bin/../../lib/gcc/pic32c/6.2.1/../../../../pic32c/lib\libc_nano.a(lib_a-memset.o)
                              build/sam_d21_xpro_winc1500/production/_ext/386821479/m2m_hif.o (memset)
c:/program files/microchip/xc32/v2.41/bin/bin/../../lib/gcc/pic32c/6.2.1/../../../../pic32c/lib\libc_nano.a(lib_a-mktime.o)
                              build/sam_d21_xpro_winc1500/production/_ext/2003669979/wdrv_winc_systime.o (mktime)
c:/program files/microchip/xc32/v2.41/bin/bin/../../lib/gcc/pic32c/6.2.1/../../../../pic32c/lib\libc_nano.a(lib_a-nano-freer.o)
                              c:/program files/microchip/xc32/v2.41/bin/bin/../../lib/gcc/pic32c/6.2.1/../../../../pic32c/lib\libc_nano.a(lib_a-malloc.o) (_free_r)
c:/program files/microchip/xc32/v2.41/bin/bin/../../lib/gcc/pic32c/6.2.1/../../../../pic32c/lib\libc_nano.a(lib_a-nano-mallocr.o)
                              c:/program files/microchip/xc32/v2.41/bin/bin/../../lib/gcc/pic32c/6.2.1/../../../../pic32c/lib\libc_nano.a(lib_a-malloc.o) (_malloc_r)
c:/program files/microchip/xc32/v2.41/bin/bin/../../lib/gcc/pic32c/6.2.1/../../../../pic32c/lib\libc_nano.a(lib_a-sbrkr.o)
                              c:/program files/microchip/xc32/v2.41/bin/bin/../../lib/gcc/pic32c/6.2.1/../../../../pic32c/lib\libc_nano.a(lib_a-nano-mallocr.o) (_sbrk_r)
c:/program files/microchip/xc32/v2.41/bin/bin/../../lib/gcc/pic32c/6.2.1/../../../../pic32c/lib\libc_nano.a(_lib_a-sprintf.cdnopuxX.o)
                              (_sprintf_cdnopuxX)
c:/program files/microchip/xc32/v2.41/bin/bin/../../lib/gcc/pic32c/6.2.1/../../../../pic32c/lib\libc_nano.a(lib_a-strchr.o)
                              build/sam_d21_xpro_winc1500/production/_ext/2003669979/wdrv_winc_authctx.o (strchr)
c:/program files/microchip/xc32/v2.41/bin/bin/../../lib/gcc/pic32c/6.2.1/../../../../pic32c/lib\libc_nano.a(lib_a-strlen.o)
                              build/sam_d21_xpro_winc1500/production/_ext/386821479/m2m_wifi.o (strlen)
c:/program files/microchip/xc32/v2.41/bin/bin/../../lib/gcc/pic32c/6.2.1/../../../../pic32c/lib\libc_nano.a(lib_a-tzcalc_limits.o)
                              c:/program files/microchip/xc32/v2.41/bin/bin/../../lib/gcc/pic32c/6.2.1/../../../../pic32c/lib\libc_nano.a(lib_a-mktime.o) (__tzcalc_limits)
c:/program files/microchip/xc32/v2.41/bin/bin/../../lib/gcc/pic32c/6.2.1/../../../../pic32c/lib\libc_nano.a(lib_a-tzset.o)
                              c:/program files/microchip/xc32/v2.41/bin/bin/../../lib/gcc/pic32c/6.2.1/../../../../pic32c/lib\libc_nano.a(lib_a-mktime.o) (_tzset_unlocked)
c:/program files/microchip/xc32/v2.41/bin/bin/../../lib/gcc/pic32c/6.2.1/../../../../pic32c/lib\libc_nano.a(lib_a-tzset_r.o)
                              c:/program files/microchip/xc32/v2.41/bin/bin/../../lib/gcc/pic32c/6.2.1/../../../../pic32c/lib\libc_nano.a(lib_a-tzset.o) (_tzset_unlocked_r)
c:/program files/microchip/xc32/v2.41/bin/bin/../../lib/gcc/pic32c/6.2.1/../../../../pic32c/lib\libc_nano.a(lib_a-tzvars.o)
                              c:/program files/microchip/xc32/v2.41/bin/bin/../../lib/gcc/pic32c/6.2.1/../../../../pic32c/lib\libc_nano.a(lib_a-tzset_r.o) (_timezone)
c:/program files/microchip/xc32/v2.41/bin/bin/../../lib/gcc/pic32c/6.2.1/../../../../pic32c/lib\libc_nano.a(lib_a-div.o)
                              c:/program files/microchip/xc32/v2.41/bin/bin/../../lib/gcc/pic32c/6.2.1/../../../../pic32c/lib\libc_nano.a(lib_a-mktime.o) (div)
c:/program files/microchip/xc32/v2.41/bin/bin/../../lib/gcc/pic32c/6.2.1/../../../../pic32c/lib\libc_nano.a(lib_a-getenv_r.o)
                              c:/program files/microchip/xc32/v2.41/bin/bin/../../lib/gcc/pic32c/6.2.1/../../../../pic32c/lib\libc_nano.a(lib_a-tzset_r.o) (_getenv_r)
c:/program files/microchip/xc32/v2.41/bin/bin/../../lib/gcc/pic32c/6.2.1/../../../../pic32c/lib\libc_nano.a(lib_a-gettzinfo.o)
                              c:/program files/microchip/xc32/v2.41/bin/bin/../../lib/gcc/pic32c/6.2.1/../../../../pic32c/lib\libc_nano.a(lib_a-mktime.o) (__gettzinfo)
c:/program files/microchip/xc32/v2.41/bin/bin/../../lib/gcc/pic32c/6.2.1/../../../../pic32c/lib\libc_nano.a(lib_a-mlock.o)
                              c:/program files/microchip/xc32/v2.41/bin/bin/../../lib/gcc/pic32c/6.2.1/../../../../pic32c/lib\libc_nano.a(lib_a-nano-freer.o) (__malloc_lock)
c:/program files/microchip/xc32/v2.41/bin/bin/../../lib/gcc/pic32c/6.2.1/../../../../pic32c/lib\libc_nano.a(lib_a-month_lengths.o)
                              c:/program files/microchip/xc32/v2.41/bin/bin/../../lib/gcc/pic32c/6.2.1/../../../../pic32c/lib\libc_nano.a(lib_a-tzcalc_limits.o) (__month_lengths)
c:/program files/microchip/xc32/v2.41/bin/bin/../../lib/gcc/pic32c/6.2.1/../../../../pic32c/lib\libc_nano.a(_lib_a-nano-vfprintf.cdnopuxX.o)
                              c:/program files/microchip/xc32/v2.41/bin/bin/../../lib/gcc/pic32c/6.2.1/../../../../pic32c/lib\libc_nano.a(_lib_a-sprintf.cdnopuxX.o) (_vfprintf_cdnopuxX)
c:/program files/microchip/xc32/v2.41/bin/bin/../../lib/gcc/pic32c/6.2.1/../../../../pic32c/lib\libc_nano.a(lib_a-nano-vfprintf_i.o)
                              c:/program files/microchip/xc32/v2.41/bin/bin/../../lib/gcc/pic32c/6.2.1/../../../../pic32c/lib\libc_nano.a(_lib_a-nano-vfprintf.cdnopuxX.o) (_printf_common)
c:/program files/microchip/xc32/v2.41/bin/bin/../../lib/gcc/pic32c/6.2.1/../../../../pic32c/lib\libc_nano.a(lib_a-reent.o)
                              c:/program files/microchip/xc32/v2.41/bin/bin/../../lib/gcc/pic32c/6.2.1/../../../../pic32c/lib\libc_nano.a(lib_a-sbrkr.o) (errno)
c:/program files/microchip/xc32/v2.41/bin/bin/../../lib/gcc/pic32c/6.2.1/../../../../pic32c/lib\libc_nano.a(lib_a-sscanf.o)
                              c:/program files/microchip/xc32/v2.41/bin/bin/../../lib/gcc/pic32c/6.2.1/../../../../pic32c/lib\libc_nano.a(lib_a-tzset_r.o) (siscanf)
c:/program files/microchip/xc32/v2.41/bin/bin/../../lib/gcc/pic32c/6.2.1/../../../../pic32c/lib\libc_nano.a(lib_a-__ssfputs.o)
                              c:/program files/microchip/xc32/v2.41/bin/bin/../../lib/gcc/pic32c/6.2.1/../../../../pic32c/lib\libc_nano.a(_lib_a-nano-vfprintf.cdnopuxX.o) (__ssfputs_r)
c:/program files/microchip/xc32/v2.41/bin/bin/../../lib/gcc/pic32c/6.2.1/../../../../pic32c/lib\libc_nano.a(lib_a-stdio.o)
                              c:/program files/microchip/xc32/v2.41/bin/bin/../../lib/gcc/pic32c/6.2.1/../../../../pic32c/lib\libc_nano.a(lib_a-sscanf.o) (__seofread)
c:/program files/microchip/xc32/v2.41/bin/bin/../../lib/gcc/pic32c/6.2.1/../../../../pic32c/lib\libc_nano.a(lib_a-strcmp.o)
                              c:/program files/microchip/xc32/v2.41/bin/bin/../../lib/gcc/pic32c/6.2.1/../../../../pic32c/lib\libc_nano.a(lib_a-tzset_r.o) (strcmp)
c:/program files/microchip/xc32/v2.41/bin/bin/../../lib/gcc/pic32c/6.2.1/../../../../pic32c/lib\libc_nano.a(lib_a-strcpy.o)
                              c:/program files/microchip/xc32/v2.41/bin/bin/../../lib/gcc/pic32c/6.2.1/../../../../pic32c/lib\libc_nano.a(lib_a-tzset_r.o) (strcpy)
c:/program files/microchip/xc32/v2.41/bin/bin/../../lib/gcc/pic32c/6.2.1/../../../../pic32c/lib\libc_nano.a(lib_a-strncmp.o)
                              c:/program files/microchip/xc32/v2.41/bin/bin/../../lib/gcc/pic32c/6.2.1/../../../../pic32c/lib\libc_nano.a(lib_a-getenv_r.o) (strncmp)
c:/program files/microchip/xc32/v2.41/bin/bin/../../lib/gcc/pic32c/6.2.1/../../../../pic32c/lib\libc_nano.a(lib_a-strtoul.o)
                              c:/program files/microchip/xc32/v2.41/bin/bin/../../lib/gcc/pic32c/6.2.1/../../../../pic32c/lib\libc_nano.a(lib_a-tzset_r.o) (strtoul)
c:/program files/microchip/xc32/v2.41/bin/bin/../../lib/gcc/pic32c/6.2.1/../../../../pic32c/lib\libc_nano.a(lib_a-wbuf.o)
                              c:/program files/microchip/xc32/v2.41/bin/bin/../../lib/gcc/pic32c/6.2.1/../../../../pic32c/lib\libc_nano.a(lib_a-__ssfputs.o) (__swbuf_r)
c:/program files/microchip/xc32/v2.41/bin/bin/../../lib/gcc/pic32c/6.2.1/../../../../pic32c/lib\libc_nano.a(lib_a-writer.o)
                              c:/program files/microchip/xc32/v2.41/bin/bin/../../lib/gcc/pic32c/6.2.1/../../../../pic32c/lib\libc_nano.a(lib_a-stdio.o) (_write_r)
c:/program files/microchip/xc32/v2.41/bin/bin/../../lib/gcc/pic32c/6.2.1/../../../../pic32c/lib\libc_nano.a(lib_a-wsetup.o)
                              c:/program files/microchip/xc32/v2.41/bin/bin/../../lib/gcc/pic32c/6.2.1/../../../../pic32c/lib\libc_nano.a(_lib_a-nano-vfprintf.cdnopuxX.o) (__swsetup_r)
c:/program files/microchip/xc32/v2.41/bin/bin/../../lib/gcc/pic32c/6.2.1/../../../../pic32c/lib\libc_nano.a(lib_a-closer.o)
                              c:/program files/microchip/xc32/v2.41/bin/bin/../../lib/gcc/pic32c/6.2.1/../../../../pic32c/lib\libc_nano.a(lib_a-stdio.o) (_close_r)
c:/program files/microchip/xc32/v2.41/bin/bin/../../lib/gcc/pic32c/6.2.1/../../../../pic32c/lib\libc_nano.a(lib_a-environ.o)
                              c:/program files/microchip/xc32/v2.41/bin/bin/../../lib/gcc/pic32c/6.2.1/../../../../pic32c/lib\libc_nano.a(lib_a-getenv_r.o) (environ)
c:/program files/microchip/xc32/v2.41/bin/bin/../../lib/gcc/pic32c/6.2.1/../../../../pic32c/lib\libc_nano.a(lib_a-envlock.o)
                              c:/program files/microchip/xc32/v2.41/bin/bin/../../lib/gcc/pic32c/6.2.1/../../../../pic32c/lib\libc_nano.a(lib_a-getenv_r.o) (__env_lock)
c:/program files/microchip/xc32/v2.41/bin/bin/../../lib/gcc/pic32c/6.2.1/../../../../pic32c/lib\libc_nano.a(lib_a-fflush.o)
                              c:/program files/microchip/xc32/v2.41/bin/bin/../../lib/gcc/pic32c/6.2.1/../../../../pic32c/lib\libc_nano.a(lib_a-wbuf.o) (_fflush_r)
c:/program files/microchip/xc32/v2.41/bin/bin/../../lib/gcc/pic32c/6.2.1/../../../../pic32c/lib\libc_nano.a(lib_a-findfp.o)
                              c:/program files/microchip/xc32/v2.41/bin/bin/../../lib/gcc/pic32c/6.2.1/../../../../pic32c/lib\libc_nano.a(_lib_a-nano-vfprintf.cdnopuxX.o) (__sinit)
c:/program files/microchip/xc32/v2.41/bin/bin/../../lib/gcc/pic32c/6.2.1/../../../../pic32c/lib\libc_nano.a(lib_a-fputwc.o)
                              c:/program files/microchip/xc32/v2.41/bin/bin/../../lib/gcc/pic32c/6.2.1/../../../../pic32c/lib\libc_nano.a(lib_a-__ssfputs.o) (_fputwc_r)
c:/program files/microchip/xc32/v2.41/bin/bin/../../lib/gcc/pic32c/6.2.1/../../../../pic32c/lib\libc_nano.a(lib_a-fwalk.o)
                              c:/program files/microchip/xc32/v2.41/bin/bin/../../lib/gcc/pic32c/6.2.1/../../../../pic32c/lib\libc_nano.a(lib_a-fflush.o) (_fwalk_reent)
c:/program files/microchip/xc32/v2.41/bin/bin/../../lib/gcc/pic32c/6.2.1/../../../../pic32c/lib\libc_nano.a(lib_a-locale.o)
                              c:/program files/microchip/xc32/v2.41/bin/bin/../../lib/gcc/pic32c/6.2.1/../../../../pic32c/lib\libc_nano.a(lib_a-fputwc.o) (__locale_mb_cur_max)
c:/program files/microchip/xc32/v2.41/bin/bin/../../lib/gcc/pic32c/6.2.1/../../../../pic32c/lib\libc_nano.a(lib_a-lseekr.o)
                              c:/program files/microchip/xc32/v2.41/bin/bin/../../lib/gcc/pic32c/6.2.1/../../../../pic32c/lib\libc_nano.a(lib_a-stdio.o) (_lseek_r)
c:/program files/microchip/xc32/v2.41/bin/bin/../../lib/gcc/pic32c/6.2.1/../../../../pic32c/lib\libc_nano.a(lib_a-makebuf.o)
                              c:/program files/microchip/xc32/v2.41/bin/bin/../../lib/gcc/pic32c/6.2.1/../../../../pic32c/lib\libc_nano.a(lib_a-wsetup.o) (__smakebuf_r)
c:/program files/microchip/xc32/v2.41/bin/bin/../../lib/gcc/pic32c/6.2.1/../../../../pic32c/lib\libc_nano.a(lib_a-mbtowc_r.o)
                              c:/program files/microchip/xc32/v2.41/bin/bin/../../lib/gcc/pic32c/6.2.1/../../../../pic32c/lib\libc_nano.a(lib_a-locale.o) (__ascii_mbtowc)
c:/program files/microchip/xc32/v2.41/bin/bin/../../lib/gcc/pic32c/6.2.1/../../../../pic32c/lib\libc_nano.a(lib_a-memchr-stub.o)
                              c:/program files/microchip/xc32/v2.41/bin/bin/../../lib/gcc/pic32c/6.2.1/../../../../pic32c/lib\libc_nano.a(_lib_a-nano-vfprintf.cdnopuxX.o) (memchr)
c:/program files/microchip/xc32/v2.41/bin/bin/../../lib/gcc/pic32c/6.2.1/../../../../pic32c/lib\libc_nano.a(lib_a-nano-svfscanf.o)
                              c:/program files/microchip/xc32/v2.41/bin/bin/../../lib/gcc/pic32c/6.2.1/../../../../pic32c/lib\libc_nano.a(lib_a-sscanf.o) (__ssvfscanf_r)
c:/program files/microchip/xc32/v2.41/bin/bin/../../lib/gcc/pic32c/6.2.1/../../../../pic32c/lib\libc_nano.a(lib_a-nano-vfscanf_i.o)
                              c:/program files/microchip/xc32/v2.41/bin/bin/../../lib/gcc/pic32c/6.2.1/../../../../pic32c/lib\libc_nano.a(lib_a-nano-svfscanf.o) (_scanf_chars)
c:/program files/microchip/xc32/v2.41/bin/bin/../../lib/gcc/pic32c/6.2.1/../../../../pic32c/lib\libc_nano.a(lib_a-readr.o)
                              c:/program files/microchip/xc32/v2.41/bin/bin/../../lib/gcc/pic32c/6.2.1/../../../../pic32c/lib\libc_nano.a(lib_a-stdio.o) (_read_r)
c:/program files/microchip/xc32/v2.41/bin/bin/../../lib/gcc/pic32c/6.2.1/../../../../pic32c/lib\libc_nano.a(lib_a-sccl.o)
                              c:/program files/microchip/xc32/v2.41/bin/bin/../../lib/gcc/pic32c/6.2.1/../../../../pic32c/lib\libc_nano.a(lib_a-nano-svfscanf.o) (__sccl)
c:/program files/microchip/xc32/v2.41/bin/bin/../../lib/gcc/pic32c/6.2.1/../../../../pic32c/lib\libc_nano.a(lib_a-strtol.o)
                              c:/program files/microchip/xc32/v2.41/bin/bin/../../lib/gcc/pic32c/6.2.1/../../../../pic32c/lib\libc_nano.a(lib_a-nano-vfscanf_i.o) (_strtol_r)
c:/program files/microchip/xc32/v2.41/bin/bin/../../lib/gcc/pic32c/6.2.1/../../../../pic32c/lib\libc_nano.a(lib_a-ungetc.o)
                              c:/program files/microchip/xc32/v2.41/bin/bin/../../lib/gcc/pic32c/6.2.1/../../../../pic32c/lib\libc_nano.a(lib_a-nano-svfscanf.o) (__submore)
c:/program files/microchip/xc32/v2.41/bin/bin/../../lib/gcc/pic32c/6.2.1/../../../../pic32c/lib\libc_nano.a(lib_a-wcrtomb.o)
                              c:/program files/microchip/xc32/v2.41/bin/bin/../../lib/gcc/pic32c/6.2.1/../../../../pic32c/lib\libc_nano.a(lib_a-fputwc.o) (_wcrtomb_r)
c:/program files/microchip/xc32/v2.41/bin/bin/../../lib/gcc/pic32c/6.2.1/../../../../pic32c/lib\libc_nano.a(lib_a-wctomb_r.o)
                              c:/program files/microchip/xc32/v2.41/bin/bin/../../lib/gcc/pic32c/6.2.1/../../../../pic32c/lib\libc_nano.a(lib_a-locale.o) (__ascii_wctomb)
c:/program files/microchip/xc32/v2.41/bin/bin/../../lib/gcc/pic32c/6.2.1/../../../../pic32c/lib\libc_nano.a(lib_a-ctype_.o)
                              c:/program files/microchip/xc32/v2.41/bin/bin/../../lib/gcc/pic32c/6.2.1/../../../../pic32c/lib\libc_nano.a(lib_a-locale.o) (_ctype_)
c:/program files/microchip/xc32/v2.41/bin/bin/../../lib/gcc/pic32c/6.2.1/../../../../pic32c/lib\libc_nano.a(lib_a-fstatr.o)
                              c:/program files/microchip/xc32/v2.41/bin/bin/../../lib/gcc/pic32c/6.2.1/../../../../pic32c/lib\libc_nano.a(lib_a-makebuf.o) (_fstat_r)
c:/program files/microchip/xc32/v2.41/bin/bin/../../lib/gcc/pic32c/6.2.1/../../../../pic32c/lib\libc_nano.a(lib_a-isattyr.o)
                              c:/program files/microchip/xc32/v2.41/bin/bin/../../lib/gcc/pic32c/6.2.1/../../../../pic32c/lib\libc_nano.a(lib_a-makebuf.o) (_isatty_r)
c:/program files/microchip/xc32/v2.41/bin/bin/../../lib/gcc/pic32c/6.2.1/../../../../pic32c/lib\libc_nano.a(lib_a-nano-reallocr.o)
                              c:/program files/microchip/xc32/v2.41/bin/bin/../../lib/gcc/pic32c/6.2.1/../../../../pic32c/lib\libc_nano.a(lib_a-ungetc.o) (_realloc_r)
c:/program files/microchip/xc32/v2.41/bin/bin/../../lib/gcc/pic32c/6.2.1/../../../../pic32c/lib\libc_nano.a(lib_a-nano-msizer.o)
                              c:/program files/microchip/xc32/v2.41/bin/bin/../../lib/gcc/pic32c/6.2.1/../../../../pic32c/lib\libc_nano.a(lib_a-nano-reallocr.o) (_malloc_usable_size_r)
c:/program files/microchip/xc32/v2.41/bin/bin/../../lib/gcc/pic32c/6.2.1/../../../../pic32c/lib\libpic32c.a(_close.o)
                              c:/program files/microchip/xc32/v2.41/bin/bin/../../lib/gcc/pic32c/6.2.1/../../../../pic32c/lib\libc_nano.a(lib_a-closer.o) (_close)
c:/program files/microchip/xc32/v2.41/bin/bin/../../lib/gcc/pic32c/6.2.1/../../../../pic32c/lib\libpic32c.a(_fstat.o)
                              c:/program files/microchip/xc32/v2.41/bin/bin/../../lib/gcc/pic32c/6.2.1/../../../../pic32c/lib\libc_nano.a(lib_a-fstatr.o) (_fstat)
c:/program files/microchip/xc32/v2.41/bin/bin/../../lib/gcc/pic32c/6.2.1/../../../../pic32c/lib\libpic32c.a(_isatty.o)
                              c:/program files/microchip/xc32/v2.41/bin/bin/../../lib/gcc/pic32c/6.2.1/../../../../pic32c/lib\libc_nano.a(lib_a-isattyr.o) (_isatty)
c:/program files/microchip/xc32/v2.41/bin/bin/../../lib/gcc/pic32c/6.2.1/../../../../pic32c/lib\libpic32c.a(_lseek.o)
                              c:/program files/microchip/xc32/v2.41/bin/bin/../../lib/gcc/pic32c/6.2.1/../../../../pic32c/lib\libc_nano.a(lib_a-lseekr.o) (_lseek)
c:/program files/microchip/xc32/v2.41/bin/bin/../../lib/gcc/pic32c/6.2.1/../../../../pic32c/lib\libpic32c.a(_read.o)
                              c:/program files/microchip/xc32/v2.41/bin/bin/../../lib/gcc/pic32c/6.2.1/../../../../pic32c/lib\libc_nano.a(lib_a-readr.o) (_read)
c:/program files/microchip/xc32/v2.41/bin/bin/../../lib/gcc/pic32c/6.2.1/../../../../pic32c/lib\libpic32c.a(sbrk.o)
                              c:/program files/microchip/xc32/v2.41/bin/bin/../../lib/gcc/pic32c/6.2.1/../../../../pic32c/lib\libc_nano.a(lib_a-sbrkr.o) (_sbrk)
c:/program files/microchip/xc32/v2.41/bin/bin/../../lib/gcc/pic32c/6.2.1/../../../../pic32c/lib\libpic32c.a(_write.o)
                              c:/program files/microchip/xc32/v2.41/bin/bin/../../lib/gcc/pic32c/6.2.1/../../../../pic32c/lib\libc_nano.a(lib_a-writer.o) (_write)
c:/program files/microchip/xc32/v2.41/bin/bin/../../lib/gcc/pic32c/6.2.1/../../../../pic32c/lib\libpic32c.a(close.o)
                              c:/program files/microchip/xc32/v2.41/bin/bin/../../lib/gcc/pic32c/6.2.1/../../../../pic32c/lib\libpic32c.a(_close.o) (close)
c:/program files/microchip/xc32/v2.41/bin/bin/../../lib/gcc/pic32c/6.2.1/../../../../pic32c/lib\libpic32c.a(fstat.o)
                              c:/program files/microchip/xc32/v2.41/bin/bin/../../lib/gcc/pic32c/6.2.1/../../../../pic32c/lib\libpic32c.a(_fstat.o) (fstat)
c:/program files/microchip/xc32/v2.41/bin/bin/../../lib/gcc/pic32c/6.2.1/../../../../pic32c/lib\libpic32c.a(isatty.o)
                              c:/program files/microchip/xc32/v2.41/bin/bin/../../lib/gcc/pic32c/6.2.1/../../../../pic32c/lib\libpic32c.a(_isatty.o) (isatty)
c:/program files/microchip/xc32/v2.41/bin/bin/../../lib/gcc/pic32c/6.2.1/../../../../pic32c/lib\libpic32c.a(lseek.o)
                              c:/program files/microchip/xc32/v2.41/bin/bin/../../lib/gcc/pic32c/6.2.1/../../../../pic32c/lib\libpic32c.a(_lseek.o) (lseek)
c:/program files/microchip/xc32/v2.41/bin/bin/../../lib/gcc/pic32c/6.2.1/../../../../pic32c/lib\libpic32c.a(read.o)
                              c:/program files/microchip/xc32/v2.41/bin/bin/../../lib/gcc/pic32c/6.2.1/../../../../pic32c/lib\libpic32c.a(_read.o) (read)
c:/program files/microchip/xc32/v2.41/bin/bin/../../lib/gcc/pic32c/6.2.1/../../../../pic32c/lib\libpic32c.a(write.o)
                              c:/program files/microchip/xc32/v2.41/bin/bin/../../lib/gcc/pic32c/6.2.1/../../../../pic32c/lib\libpic32c.a(_write.o) (write)

Allocating common symbols
Common symbol       size              file

errno               0x4               c:/program files/microchip/xc32/v2.41/bin/bin/../../lib/gcc/pic32c/6.2.1/../../../../pic32c/lib\libc_nano.a(lib_a-reent.o)
gstrHifCxt          0x28              build/sam_d21_xpro_winc1500/production/_ext/386821479/m2m_hif.o
TC3_CallbackObject  0x8               build/sam_d21_xpro_winc1500/production/_ext/1143908167/plib_tc3.o
pfWINCDebugPrintCb  0x4               build/sam_d21_xpro_winc1500/production/_ext/2003669979/wdrv_winc.o
gu16BufferSize      0x2               build/sam_d21_xpro_winc1500/production/_ext/39655908/socket.o
gsockerrno          0x1               build/sam_d21_xpro_winc1500/production/_ext/39655908/socket.o
appData             0x2               build/sam_d21_xpro_winc1500/production/_ext/1360937237/app.o
sercom5USARTObj     0x30              build/sam_d21_xpro_winc1500/production/_ext/1242531425/plib_sercom5_usart.o
gu8OpCode           0x1               build/sam_d21_xpro_winc1500/production/_ext/39655908/socket.o
eicCallbackObject   0xc0              build/sam_d21_xpro_winc1500/production/_ext/1101428939/plib_eic.o
sysObj              0xc               build/sam_d21_xpro_winc1500/production/_ext/281389274/initialization.o
sercom4SPIObj       0x2c              build/sam_d21_xpro_winc1500/production/_ext/1670897031/plib_sercom4_spi_master.o
gastrSockets        0xb0              build/sam_d21_xpro_winc1500/production/_ext/39655908/socket.o
gpfAppSocketCb      0x4               build/sam_d21_xpro_winc1500/production/_ext/39655908/socket.o
gpfAppResolveCb     0x4               build/sam_d21_xpro_winc1500/production/_ext/39655908/socket.o

Microchip PIC32 Memory-Usage Report

ROM Program-Memory Usage
section                    address  length [bytes]      (dec)  Description
-------                 ----------  -------------------------  -----------
.vectors                         0           0xb0         176   
.text                         0xb0           0x20          32  App's exec code 
.ARM.exidx                    0xd0            0x8           8   
.dinit                        0xd8          0x200         512   
.text.DRV_SPI_WriteRead      0x2d8          0x1d8         472   
.text.hif_handle_isr         0x4b0          0x1c8         456   
.text.SERCOM4_SPI_Inter      0x678          0x16c         364   
.text.SerialBridge_Proc      0x7e4          0x16c         364   
.text.nm_spi_write_bloc      0x950          0x160         352   
.text.SerialBridge_Plat      0xab0          0x15c         348   
.text.SERCOM4_SPI_Write      0xc0c          0x140         320   
.text._DRV_SPI_StartDMA      0xd4c          0x138         312   
.text.SERCOM5_USART_Ser      0xe84          0x134         308   
.text.spi_cmd                0xfb8          0x118         280   
.text.DRV_SPI_Open          0x10d0          0x108         264   
.rodata.crc7_syndrome_t     0x11d8          0x100         256   
.text._ProcessCommand       0x12d8          0x100         256   
.text.SERCOM5_USART_Int     0x13d8           0xe4         228   
.text                       0x14bc           0xe2         226  App's exec code 
.text.EVSYS_Initialize      0x159e            0x2           2   
.text.spi_data_read         0x15a0           0xe0         224   
.text.SYS_TIME_AddToLis     0x1680           0xe0         224   
.text.SYS_TIME_PLIBCall     0x1760           0xe0         224   
.text.SerialBridge_Plat     0x1840           0xdc         220   
.text.CLOCK_Initialize      0x191c           0xc8         200   
.text._DRV_SPI_Resource     0x19e4           0xc4         196   
.text._DRV_SPI_PlibCall     0x1aa8           0xc4         196   
.text.nmi_get_chipid        0x1b6c           0xc4         196   
.text.SYS_TIME_TimerObj     0x1c30           0xc0         192   
.text._DRV_SPI_Resource     0x1cf0           0xb2         178   
.text.SYS_DMA_Addressin     0x1da2            0x2           2   
.text.nm_spi_read_reg_w     0x1da4           0xac         172   
.text.SYS_TIME_Initiali     0x1e50           0xac         172   
.text                       0x1efc           0xa8         168  App's exec code 
.text.DRV_SPI_Initializ     0x1fa4           0xa4         164   
.text.SYS_TIME_HwTimerC     0x2048           0xa4         164   
.text._DRV_SPI_UpdateTr     0x20ec           0xa0         160   
.text.SerialBridge_Plat     0x218c           0xa0         160   
.text.nm_spi_write_reg      0x222c           0x9c         156   
.text.nm_spi_read_block     0x22c8           0x98         152   
.text.spi_cmd_rsp           0x2360           0x96         150   
.text.SYS_DMA_DataWidth     0x23f6            0x2           2   
.text.nm_spi_init           0x23f8           0x94         148   
.text.WDRV_WINC_Tasks       0x248c           0x90         144   
.text.__pic32c_data_ini     0x251c           0x90         144   
.text                       0x25ac           0x8c         140  App's exec code 
.text.SERCOM4_SPI_Trans     0x2638           0x88         136   
.text.EIC_Initialize        0x26c0           0x84         132   
.text.chip_wake             0x2744           0x7e         126   
.text.Dummy_Handler         0x27c2            0x2           2   
.text.SerialBridge_Plat     0x27c4           0x7c         124   
.text._USARTInit            0x2840           0x78         120   
.text.cpu_halt              0x28b8           0x6c         108   
.text.SerialBridge_Plat     0x2924           0x6c         108   
.text.NVIC_Initialize       0x2990           0x68         104   
.text.SYS_Initialize        0x29f8           0x64         100   
.text.nm_read_block         0x2a5c           0x60          96   
.text.nm_write_block        0x2abc           0x60          96   
.text.SYS_TIME_TimerSta     0x2b1c           0x60          96   
.text.chip_sleep            0x2b7c           0x5e          94   
.text.NonMaskableInt_Ha     0x2bda            0x2           2   
.text.WDRV_WINC_SPIRece     0x2bdc           0x5c          92   
.text.SYS_TIME_RemoveFr     0x2c38           0x58          88   
.text.Reset_Handler         0x2c90           0x58          88   
.text.WDRV_WINC_SPISend     0x2ce8           0x54          84   
.text.enable_interrupts     0x2d3c           0x54          84   
.text.SERCOM5_USART_Ini     0x2d90           0x54          84   
.text.SYS_TIME_DelayMS      0x2de4           0x54          84   
.text.WDRV_WINC_SPIInit     0x2e38           0x50          80   
.text.PORT_Initialize       0x2e88           0x50          80   
.text._USARTTransmitEve     0x2ed8           0x50          80   
.text.APP_Tasks             0x2f28           0x50          80   
.text._DRV_SPI_DriverHa     0x2f78           0x4c          76   
.text                       0x2fc4           0x48          72  App's exec code 
.text.EIC_InterruptHand     0x300c           0x48          72   
.text.SERCOM5_USART_Wri     0x3054           0x48          72   
.text.__libc_init_array     0x309c           0x48          72   
.text.SERCOM5_USART_Rea     0x30e4           0x44          68   
.text.SYS_TIME_TimerAdd     0x3128           0x44          68   
.text._USARTReceiveEven     0x316c           0x44          68   
.text                       0x31b0           0x42          66  App's exec code 
.text.HardFault_Handler     0x31f2            0x2           2   
.text.TC3_TimerInitiali     0x31f4           0x40          64   
.text.SYS_TIME_GetTimer     0x3234           0x40          64   
.text                       0x3274           0x40          64  App's exec code 
.text.SYS_TIME_TimerDes     0x32b4           0x3e          62   
.text._WDRV_WINC_SPITra     0x32f4           0x3c          60   
.text.SERCOM4_SPI_Initi     0x3330           0x3c          60   
.text.SYS_INT_SourceDis     0x336c           0x3c          60   
.text                       0x33a8           0x3c          60  App's exec code 
.text.DRV_SPI_TransferE     0x33e4           0x38          56   
.text.hif_chip_wake         0x341c           0x38          56   
.text.nm_spi_reset          0x3454           0x38          56   
.text.SYS_TIME_UpdateTi     0x348c           0x38          56   
.text.hif_set_rx_done       0x34c4           0x34          52   
.text.hif_chip_sleep        0x34f8           0x34          52   
.text.nm_drv_init_downl     0x352c           0x34          52   
.rodata.spi_cmd             0x3560           0x34          52   
.text.SERCOM4_SPI_IsBus     0x3594           0x34          52   
.text.SYS_TIME_Resource     0x35c8           0x34          52   
.text.SYS_TIME_Resource     0x35fc           0x30          48   
.rodata.drvSPI0InitData     0x362c           0x30          48   
.rodata.platformUsartPl     0x365c           0x2c          44   
.text.SYS_TIME_TimerPer     0x3688           0x2a          42   
.text.spi_reset             0x36b2           0x28          40   
.text.nm_reset              0x36da           0x26          38   
.text.SERCOM5_USART_Err     0x3700           0x24          36   
.text.TC3_TimerInterrup     0x3724           0x24          36   
.text.SYS_TIME_GetElaps     0x3748           0x24          36   
.rodata.drvSPI0remapDat     0x376c           0x24          36   
.text.WDRV_MSDelay          0x3790           0x22          34   
.text.m2m_wifi_download     0x37b4           0x20          32   
.text.TC3_Timer16bitCou     0x37d4           0x20          32   
.text.WDRV_WINC_Initial     0x37f4           0x1c          28   
.text.SERCOM5_USART_Err     0x3810           0x1c          28   
.rodata.platformInterru     0x382c           0x1c          28   
.text.SYS_INT_SourceRes     0x3848           0x1c          28   
.text.SYS_TIME_Counter6     0x3864           0x1c          28   
.rodata.sysTimePlibAPI      0x3880           0x1c          28   
.text.nm_drv_init_hold      0x389c           0x1a          26   
.text.m2m_wifi_init_hol     0x38b8           0x18          24   
.text.TC3_TimerStart        0x38d0           0x18          24   
.text.TC3_TimerStop         0x38e8           0x18          24   
.text.SYS_TIME_DelayIsC     0x3900           0x18          24   
.rodata.drvSPI0Interrup     0x3918           0x18          24   
.text.SerialBridge_Plat     0x3930           0x18          24   
.rodata._ProcessCommand     0x3948           0x18          24   
.text.SerialBridge_Init     0x3960           0x18          24   
.text                       0x3978           0x48          72  App's exec code 
.text.SerialBridge_Plat     0x39c0           0x16          22   
.text._DRV_SPI_RemoveTr     0x39d6           0x14          20   
.text.TC3_Timer16bitPer     0x39ec           0x14          20   
.text.TC3_Timer16bitCom     0x3a00           0x14          20   
.text.SYS_INT_Restore       0x3a14           0x14          20   
.text.SYS_Tasks             0x3a28           0x14          20   
.text.APP_Initialize        0x3a3c           0x14          20   
.text.DRV_SPI_WriteTran     0x3a50           0x12          18   
.text.SYS_INT_Disable       0x3a62           0x12          18   
.text.memcpy                0x3a74           0x12          18   
.text.WDRV_WINC_GPIORes     0x3a88           0x10          16   
.text.WDRV_WINC_GPIORes     0x3a98           0x10          16   
.text.WDRV_WINC_GPIOChi     0x3aa8           0x10          16   
.text.WDRV_WINC_GPIOChi     0x3ab8           0x10          16   
.text.nm_bus_iface_init     0x3ac8           0x10          16   
.text.nm_spi_read_reg       0x3ad8           0x10          16   
.text.SERCOM5_USART_Rea     0x3ae8           0x10          16   
.rodata.drvSPI0PlibAPI      0x3af8           0x10          16   
.text.memset                0x3b08           0x10          16   
.text.main                  0x3b18            0xe          14   
.text.nm_spi_lock_init      0x3b28            0xc          12   
.text.NVMCTRL_Initializ     0x3b34            0xc          12   
.text.PORT_GroupWrite       0x3b40            0xc          12   
.text.SERCOM4_SPI_Callb     0x3b4c            0xc          12   
.text.SERCOM5_USART_Wri     0x3b58            0xc          12   
.text.SERCOM5_USART_Wri     0x3b64            0xc          12   
.text.SERCOM5_USART_Wri     0x3b70            0xc          12   
.text.SERCOM5_USART_Rea     0x3b7c            0xc          12   
.text.SERCOM5_USART_Rea     0x3b88            0xc          12   
.text.TC3_TimerCallback     0x3b94            0xc          12   
.text.nm_sleep              0x3ba0            0x8           8   
.text.m2m_wifi_handle_e     0x3ba8            0x8           8   
.text.nm_bus_reset          0x3bb0            0x8           8   
.text.nm_read_reg           0x3bb8            0x8           8   
.text.nm_read_reg_with_     0x3bc0            0x8           8   
.text.nm_write_reg          0x3bc8            0x8           8   
.text.TC3_TimerFrequenc     0x3bd0            0x8           8   
.rodata.drvSPI0remapClo     0x3bd8            0x8           8   
.rodata.drvSPI0remapClo     0x3be0            0x8           8   
.rodata.sysTimeInitData     0x3be8            0x8           8   
.text.WDRV_WINC_Status      0x3bf0            0x6           6   
.rodata                     0x3bf6            0x4           4  Read-only const 
.text                       0x3bfc            0x4           4  App's exec code 
      Total ROM used  :      0x3bf2       15346  5.9% of 0x40000
        --------------------------------------------------------------------------
         Total Program Memory used  :      0x3bf2       15346  5.9% of 0x40000
        --------------------------------------------------------------------------


RAM Data-Memory Usage
section                    address  length [bytes]      (dec)  Description
-------                 ----------  -------------------------  -----------
.bss                    0x20000000          0x160         352  Uninitialized data 
.bss.serialBridgeDecode 0x20000160          0x81c        2076   
.bss.usartReceiveBuffer 0x2000097c          0x200         512   
.bss.usartTransmitBuffe 0x20000b7c          0x200         512   
.bss.drvSPI0TransferObj 0x20000d7c          0x168         360   
.bss.wincDescriptor     0x20000ee4           0xf4         244   
.bss.timers             0x20000fd8           0xa0         160   
.bss.gDrvSPIObj         0x20001078           0x60          96   
.bss.gSystemCounterObj  0x200010d8           0x38          56   
.bss.drvSPI0ClientObjPo 0x20001110           0x28          40   
.bss                    0x20001138           0x1c          28  Uninitialized data 
.bss.sercomSetup        0x20001154           0x10          16   
.bss.transferRxHandle   0x20001164            0x4           4   
.bss.transferTxHandle   0x20001168            0x4           4   
.data.spiHandle         0x2000116c            0x4           4   
.bss.chipid.8937        0x20001170            0x4           4   
.bss.usartReceiveInOffs 0x20001174            0x4           4   
.bss.usartReceiveLength 0x20001178            0x4           4   
.bss.usartReceiveOutOff 0x2000117c            0x4           4   
.bss.usartTransmitInOff 0x20001180            0x4           4   
.bss.usartTransmitLengt 0x20001184            0x4           4   
.bss.usartTransmitOutOf 0x20001188            0x4           4   
.data.egstrNmBusCapabil 0x2000118c            0x2           2   
.data.gSysTimeTokenCoun 0x2000118e            0x2           2   
.bss.dummy.9209         0x20001190            0x1           1   
.bss.rxSyncSem          0x20001191            0x1           1   
.bss.txSyncSem          0x20001192            0x1           1   
.bss.hifSemaphore       0x20001193            0x1           1   
.bss.gu8WifiState       0x20001194            0x1           1   
.bss.gu8Crc_off         0x20001195            0x1           1   
.bss.s_spiLock          0x20001196            0x1           1   
.bss.isLastByteTransfer 0x20001197            0x1           1   
.bss.usartWriteMutex    0x20001198            0x1           1   
         Total RAM used  :      0x1199        4505  13.7% of 0x8000
        --------------------------------------------------------------------------
            Total Data Memory used  :      0x1199        4505  13.7% of 0x8000
        --------------------------------------------------------------------------


Dynamic Data-Memory Reservation
section                    address  length [bytes]      (dec)  Description
-------                 ----------  -------------------------  -----------
heap                    0x200011a0         0x2710       10000  Reserved for heap 
stack                   0x200038c8         0x4728       18216  Reserved for stack 

        --------------------------------------------------------------------------

Discarded input sections

 .text          0x00000000        0x0 c:/program files/microchip/xc32/v2.41/bin/bin/../../lib/gcc/pic32c/6.2.1/crti.o
 .data          0x00000000        0x0 c:/program files/microchip/xc32/v2.41/bin/bin/../../lib/gcc/pic32c/6.2.1/crti.o
 .bss           0x00000000        0x0 c:/program files/microchip/xc32/v2.41/bin/bin/../../lib/gcc/pic32c/6.2.1/crti.o
 .data          0x00000000        0x4 c:/program files/microchip/xc32/v2.41/bin/bin/../../lib/gcc/pic32c/6.2.1/crtbegin.o
 .text          0x00000000        0x0 build/sam_d21_xpro_winc1500/production/_ext/1062439459/drv_spi.o
 .data          0x00000000        0x0 build/sam_d21_xpro_winc1500/production/_ext/1062439459/drv_spi.o
 .bss           0x00000000        0x0 build/sam_d21_xpro_winc1500/production/_ext/1062439459/drv_spi.o
 .text._DRV_SPI_TX_DMA_CallbackHandler
                0x00000000       0x58 build/sam_d21_xpro_winc1500/production/_ext/1062439459/drv_spi.o
 .text._DRV_SPI_RX_DMA_CallbackHandler
                0x00000000      0x130 build/sam_d21_xpro_winc1500/production/_ext/1062439459/drv_spi.o
 .text.DRV_SPI_Status
                0x00000000       0x14 build/sam_d21_xpro_winc1500/production/_ext/1062439459/drv_spi.o
 .text.DRV_SPI_Close
                0x00000000       0xa0 build/sam_d21_xpro_winc1500/production/_ext/1062439459/drv_spi.o
 .text.DRV_SPI_TransferSetup
                0x00000000       0x98 build/sam_d21_xpro_winc1500/production/_ext/1062439459/drv_spi.o
 .text.DRV_SPI_ReadTransferAdd
                0x00000000       0x16 build/sam_d21_xpro_winc1500/production/_ext/1062439459/drv_spi.o
 .text.DRV_SPI_TransferStatusGet
                0x00000000       0x40 build/sam_d21_xpro_winc1500/production/_ext/1062439459/drv_spi.o
 .text          0x00000000        0x0 build/sam_d21_xpro_winc1500/production/_ext/1115528141/wdrv_winc_eint.o
 .data          0x00000000        0x0 build/sam_d21_xpro_winc1500/production/_ext/1115528141/wdrv_winc_eint.o
 .bss           0x00000000        0x0 build/sam_d21_xpro_winc1500/production/_ext/1115528141/wdrv_winc_eint.o
 .text.WDRV_WINC_INTInitialize
                0x00000000       0x18 build/sam_d21_xpro_winc1500/production/_ext/1115528141/wdrv_winc_eint.o
 .text.WDRV_WINC_INTDeinitialize
                0x00000000        0xa build/sam_d21_xpro_winc1500/production/_ext/1115528141/wdrv_winc_eint.o
 .debug_info    0x00000000     0x107d build/sam_d21_xpro_winc1500/production/_ext/1115528141/wdrv_winc_eint.o
 .debug_abbrev  0x00000000      0x1e4 build/sam_d21_xpro_winc1500/production/_ext/1115528141/wdrv_winc_eint.o
 .debug_loc     0x00000000       0x40 build/sam_d21_xpro_winc1500/production/_ext/1115528141/wdrv_winc_eint.o
 .debug_aranges
                0x00000000       0x28 build/sam_d21_xpro_winc1500/production/_ext/1115528141/wdrv_winc_eint.o
 .debug_ranges  0x00000000       0x18 build/sam_d21_xpro_winc1500/production/_ext/1115528141/wdrv_winc_eint.o
 .debug_line    0x00000000      0x2d7 build/sam_d21_xpro_winc1500/production/_ext/1115528141/wdrv_winc_eint.o
 .debug_str     0x00000000       0x37 build/sam_d21_xpro_winc1500/production/_ext/1115528141/wdrv_winc_eint.o
 .comment       0x00000000       0x3d build/sam_d21_xpro_winc1500/production/_ext/1115528141/wdrv_winc_eint.o
 .debug_frame   0x00000000       0x40 build/sam_d21_xpro_winc1500/production/_ext/1115528141/wdrv_winc_eint.o
 .ARM.attributes
                0x00000000       0x32 build/sam_d21_xpro_winc1500/production/_ext/1115528141/wdrv_winc_eint.o
 .text          0x00000000        0x0 build/sam_d21_xpro_winc1500/production/_ext/1115528141/wdrv_winc_gpio.o
 .data          0x00000000        0x0 build/sam_d21_xpro_winc1500/production/_ext/1115528141/wdrv_winc_gpio.o
 .bss           0x00000000        0x0 build/sam_d21_xpro_winc1500/production/_ext/1115528141/wdrv_winc_gpio.o
 .text          0x00000000        0x0 build/sam_d21_xpro_winc1500/production/_ext/1837088568/wdrv_winc_spi.o
 .data          0x00000000        0x0 build/sam_d21_xpro_winc1500/production/_ext/1837088568/wdrv_winc_spi.o
 .bss           0x00000000        0x0 build/sam_d21_xpro_winc1500/production/_ext/1837088568/wdrv_winc_spi.o
 .text.WDRV_WINC_SPIDeinitialize
                0x00000000       0x38 build/sam_d21_xpro_winc1500/production/_ext/1837088568/wdrv_winc_spi.o
 .text          0x00000000        0x0 build/sam_d21_xpro_winc1500/production/_ext/418110372/nm_common.o
 .data          0x00000000        0x0 build/sam_d21_xpro_winc1500/production/_ext/418110372/nm_common.o
 .bss           0x00000000        0x0 build/sam_d21_xpro_winc1500/production/_ext/418110372/nm_common.o
 .text          0x00000000        0x0 build/sam_d21_xpro_winc1500/production/_ext/386821479/m2m_hif.o
 .data          0x00000000        0x0 build/sam_d21_xpro_winc1500/production/_ext/386821479/m2m_hif.o
 .bss           0x00000000        0x0 build/sam_d21_xpro_winc1500/production/_ext/386821479/m2m_hif.o
 .text.m2m_hif_cb
                0x00000000        0x2 build/sam_d21_xpro_winc1500/production/_ext/386821479/m2m_hif.o
 .text.hif_set_sleep_mode
                0x00000000        0xc build/sam_d21_xpro_winc1500/production/_ext/386821479/m2m_hif.o
 .text.hif_get_sleep_mode
                0x00000000        0xc build/sam_d21_xpro_winc1500/production/_ext/386821479/m2m_hif.o
 .text.hif_chip_sleep_sc
                0x00000000       0x1c build/sam_d21_xpro_winc1500/production/_ext/386821479/m2m_hif.o
 .text.hif_init
                0x00000000       0x30 build/sam_d21_xpro_winc1500/production/_ext/386821479/m2m_hif.o
 .text.hif_deinit
                0x00000000       0x1c build/sam_d21_xpro_winc1500/production/_ext/386821479/m2m_hif.o
 .text.hif_send
                0x00000000      0x200 build/sam_d21_xpro_winc1500/production/_ext/386821479/m2m_hif.o
 .text.hif_receive
                0x00000000       0x74 build/sam_d21_xpro_winc1500/production/_ext/386821479/m2m_hif.o
 .text.hif_register_cb
                0x00000000       0x54 build/sam_d21_xpro_winc1500/production/_ext/386821479/m2m_hif.o
 .rodata.hif_register_cb
                0x00000000       0x20 build/sam_d21_xpro_winc1500/production/_ext/386821479/m2m_hif.o
 .text          0x00000000        0x0 build/sam_d21_xpro_winc1500/production/_ext/386821479/m2m_periph.o
 .data          0x00000000        0x0 build/sam_d21_xpro_winc1500/production/_ext/386821479/m2m_periph.o
 .bss           0x00000000        0x0 build/sam_d21_xpro_winc1500/production/_ext/386821479/m2m_periph.o
 .text.get_gpio_idx
                0x00000000       0x3c build/sam_d21_xpro_winc1500/production/_ext/386821479/m2m_periph.o
 .text.m2m_periph_init
                0x00000000        0x4 build/sam_d21_xpro_winc1500/production/_ext/386821479/m2m_periph.o
 .text.m2m_periph_gpio_set_dir
                0x00000000       0x26 build/sam_d21_xpro_winc1500/production/_ext/386821479/m2m_periph.o
 .text.m2m_periph_gpio_set_val
                0x00000000       0x26 build/sam_d21_xpro_winc1500/production/_ext/386821479/m2m_periph.o
 .text.m2m_periph_gpio_get_val
                0x00000000       0x26 build/sam_d21_xpro_winc1500/production/_ext/386821479/m2m_periph.o
 .text.m2m_periph_pullup_ctrl
                0x00000000        0x8 build/sam_d21_xpro_winc1500/production/_ext/386821479/m2m_periph.o
 .debug_info    0x00000000     0x1593 build/sam_d21_xpro_winc1500/production/_ext/386821479/m2m_periph.o
 .debug_abbrev  0x00000000      0x2c2 build/sam_d21_xpro_winc1500/production/_ext/386821479/m2m_periph.o
 .debug_loc     0x00000000      0x333 build/sam_d21_xpro_winc1500/production/_ext/386821479/m2m_periph.o
 .debug_aranges
                0x00000000       0x48 build/sam_d21_xpro_winc1500/production/_ext/386821479/m2m_periph.o
 .debug_ranges  0x00000000       0x38 build/sam_d21_xpro_winc1500/production/_ext/386821479/m2m_periph.o
 .debug_line    0x00000000      0x3bb build/sam_d21_xpro_winc1500/production/_ext/386821479/m2m_periph.o
 .debug_str     0x00000000       0x68 build/sam_d21_xpro_winc1500/production/_ext/386821479/m2m_periph.o
 .comment       0x00000000       0x3d build/sam_d21_xpro_winc1500/production/_ext/386821479/m2m_periph.o
 .debug_frame   0x00000000       0x9c build/sam_d21_xpro_winc1500/production/_ext/386821479/m2m_periph.o
 .ARM.attributes
                0x00000000       0x32 build/sam_d21_xpro_winc1500/production/_ext/386821479/m2m_periph.o
 .text          0x00000000        0x0 build/sam_d21_xpro_winc1500/production/_ext/386821479/m2m_wifi.o
 .data          0x00000000        0x0 build/sam_d21_xpro_winc1500/production/_ext/386821479/m2m_wifi.o
 .bss           0x00000000        0x0 build/sam_d21_xpro_winc1500/production/_ext/386821479/m2m_wifi.o
 .text.m2m_wifi_cb
                0x00000000      0x340 build/sam_d21_xpro_winc1500/production/_ext/386821479/m2m_wifi.o
 .text.m2m_wifi_connect_prepare_msg
                0x00000000       0xcc build/sam_d21_xpro_winc1500/production/_ext/386821479/m2m_wifi.o
 .text.m2m_validate_ap_parameters
                0x00000000       0xc4 build/sam_d21_xpro_winc1500/production/_ext/386821479/m2m_wifi.o
 .text.hexstr_2_bytes
                0x00000000       0x82 build/sam_d21_xpro_winc1500/production/_ext/386821479/m2m_wifi.o
 .text.m2m_wifi_send_crl
                0x00000000       0x20 build/sam_d21_xpro_winc1500/production/_ext/386821479/m2m_wifi.o
 .text.m2m_wifi_init_start
                0x00000000       0x9c build/sam_d21_xpro_winc1500/production/_ext/386821479/m2m_wifi.o
 .text.m2m_wifi_init
                0x00000000       0x16 build/sam_d21_xpro_winc1500/production/_ext/386821479/m2m_wifi.o
 .text.m2m_wifi_deinit
                0x00000000       0x1c build/sam_d21_xpro_winc1500/production/_ext/386821479/m2m_wifi.o
 .text.m2m_wifi_delete_sc
                0x00000000       0x2c build/sam_d21_xpro_winc1500/production/_ext/386821479/m2m_wifi.o
 .text.m2m_wifi_default_connect
                0x00000000       0x1a build/sam_d21_xpro_winc1500/production/_ext/386821479/m2m_wifi.o
 .text.m2m_wifi_connect_open
                0x00000000       0x30 build/sam_d21_xpro_winc1500/production/_ext/386821479/m2m_wifi.o
 .text.m2m_wifi_connect_wep
                0x00000000       0x94 build/sam_d21_xpro_winc1500/production/_ext/386821479/m2m_wifi.o
 .text.m2m_wifi_connect_psk
                0x00000000       0xb4 build/sam_d21_xpro_winc1500/production/_ext/386821479/m2m_wifi.o
 .text.m2m_wifi_connect_1x_mschap2
                0x00000000      0x114 build/sam_d21_xpro_winc1500/production/_ext/386821479/m2m_wifi.o
 .text.m2m_wifi_connect_1x_tls
                0x00000000      0x1a0 build/sam_d21_xpro_winc1500/production/_ext/386821479/m2m_wifi.o
 .text.m2m_wifi_connect_sc
                0x00000000      0x106 build/sam_d21_xpro_winc1500/production/_ext/386821479/m2m_wifi.o
 .text.m2m_wifi_connect
                0x00000000       0x16 build/sam_d21_xpro_winc1500/production/_ext/386821479/m2m_wifi.o
 .text.m2m_wifi_disconnect
                0x00000000       0x1a build/sam_d21_xpro_winc1500/production/_ext/386821479/m2m_wifi.o
 .text.m2m_wifi_set_mac_address
                0x00000000       0x26 build/sam_d21_xpro_winc1500/production/_ext/386821479/m2m_wifi.o
 .text.m2m_wifi_set_static_ip
                0x00000000       0x1c build/sam_d21_xpro_winc1500/production/_ext/386821479/m2m_wifi.o
 .text.m2m_wifi_enable_dhcp
                0x00000000       0x1e build/sam_d21_xpro_winc1500/production/_ext/386821479/m2m_wifi.o
 .text.m2m_wifi_set_lsn_int
                0x00000000       0x1c build/sam_d21_xpro_winc1500/production/_ext/386821479/m2m_wifi.o
 .text.m2m_wifi_set_cust_InfoElement
                0x00000000       0x34 build/sam_d21_xpro_winc1500/production/_ext/386821479/m2m_wifi.o
 .text.m2m_wifi_set_scan_options
                0x00000000       0x5c build/sam_d21_xpro_winc1500/production/_ext/386821479/m2m_wifi.o
 .text.m2m_wifi_set_scan_region
                0x00000000       0x1e build/sam_d21_xpro_winc1500/production/_ext/386821479/m2m_wifi.o
 .text.m2m_wifi_request_scan
                0x00000000       0x4c build/sam_d21_xpro_winc1500/production/_ext/386821479/m2m_wifi.o
 .text.m2m_wifi_request_scan_passive
                0x00000000       0x4c build/sam_d21_xpro_winc1500/production/_ext/386821479/m2m_wifi.o
 .text.m2m_wifi_request_scan_ssid_list
                0x00000000       0x88 build/sam_d21_xpro_winc1500/production/_ext/386821479/m2m_wifi.o
 .text.m2m_wifi_wps
                0x00000000       0x38 build/sam_d21_xpro_winc1500/production/_ext/386821479/m2m_wifi.o
 .text.m2m_wifi_wps_disable
                0x00000000       0x1a build/sam_d21_xpro_winc1500/production/_ext/386821479/m2m_wifi.o
 .text.m2m_wifi_req_client_ctrl
                0x00000000        0x4 build/sam_d21_xpro_winc1500/production/_ext/386821479/m2m_wifi.o
 .text.m2m_wifi_req_server_init
                0x00000000        0x4 build/sam_d21_xpro_winc1500/production/_ext/386821479/m2m_wifi.o
 .text.m2m_wifi_p2p
                0x00000000       0x3c build/sam_d21_xpro_winc1500/production/_ext/386821479/m2m_wifi.o
 .text.m2m_wifi_p2p_disconnect
                0x00000000       0x1a build/sam_d21_xpro_winc1500/production/_ext/386821479/m2m_wifi.o
 .text.m2m_wifi_enable_ap_ext
                0x00000000       0x2e build/sam_d21_xpro_winc1500/production/_ext/386821479/m2m_wifi.o
 .text.m2m_wifi_enable_ap
                0x00000000       0x38 build/sam_d21_xpro_winc1500/production/_ext/386821479/m2m_wifi.o
 .text.m2m_wifi_set_gains
                0x00000000       0x26 build/sam_d21_xpro_winc1500/production/_ext/386821479/m2m_wifi.o
 .text.m2m_wifi_disable_ap
                0x00000000       0x1a build/sam_d21_xpro_winc1500/production/_ext/386821479/m2m_wifi.o
 .text.m2m_wifi_req_curr_rssi
                0x00000000       0x1a build/sam_d21_xpro_winc1500/production/_ext/386821479/m2m_wifi.o
 .text.m2m_wifi_send_ethernet_pkt
                0x00000000       0x36 build/sam_d21_xpro_winc1500/production/_ext/386821479/m2m_wifi.o
 .text.m2m_wifi_get_otp_mac_address
                0x00000000       0x22 build/sam_d21_xpro_winc1500/production/_ext/386821479/m2m_wifi.o
 .text.m2m_wifi_get_mac_address
                0x00000000       0x1e build/sam_d21_xpro_winc1500/production/_ext/386821479/m2m_wifi.o
 .text.m2m_wifi_req_scan_result
                0x00000000       0x1e build/sam_d21_xpro_winc1500/production/_ext/386821479/m2m_wifi.o
 .text.m2m_wifi_get_num_ap_found
                0x00000000        0xc build/sam_d21_xpro_winc1500/production/_ext/386821479/m2m_wifi.o
 .text.m2m_wifi_get_sleep_mode
                0x00000000        0x8 build/sam_d21_xpro_winc1500/production/_ext/386821479/m2m_wifi.o
 .text.m2m_wifi_set_sleep_mode
                0x00000000       0x2c build/sam_d21_xpro_winc1500/production/_ext/386821479/m2m_wifi.o
 .text.m2m_wifi_request_sleep
                0x00000000       0x2e build/sam_d21_xpro_winc1500/production/_ext/386821479/m2m_wifi.o
 .text.m2m_wifi_set_device_name
                0x00000000       0x30 build/sam_d21_xpro_winc1500/production/_ext/386821479/m2m_wifi.o
 .text.m2m_wifi_configure_sntp
                0x00000000       0x3c build/sam_d21_xpro_winc1500/production/_ext/386821479/m2m_wifi.o
 .text.m2m_wifi_get_chipId
                0x00000000        0x8 build/sam_d21_xpro_winc1500/production/_ext/386821479/m2m_wifi.o
 .text.m2m_wifi_get_firmware_version
                0x00000000       0x1e build/sam_d21_xpro_winc1500/production/_ext/386821479/m2m_wifi.o
 .text.m2m_wifi_start_provision_mode_ext
                0x00000000       0x7c build/sam_d21_xpro_winc1500/production/_ext/386821479/m2m_wifi.o
 .text.m2m_wifi_start_provision_mode
                0x00000000       0x40 build/sam_d21_xpro_winc1500/production/_ext/386821479/m2m_wifi.o
 .text.m2m_wifi_stop_provision_mode
                0x00000000       0x1a build/sam_d21_xpro_winc1500/production/_ext/386821479/m2m_wifi.o
 .text.m2m_wifi_get_connection_info
                0x00000000       0x1a build/sam_d21_xpro_winc1500/production/_ext/386821479/m2m_wifi.o
 .text.m2m_wifi_set_system_time
                0x00000000       0x1e build/sam_d21_xpro_winc1500/production/_ext/386821479/m2m_wifi.o
 .text.m2m_wifi_get_system_time
                0x00000000       0x1a build/sam_d21_xpro_winc1500/production/_ext/386821479/m2m_wifi.o
 .text.m2m_wifi_enable_sntp
                0x00000000       0x1e build/sam_d21_xpro_winc1500/production/_ext/386821479/m2m_wifi.o
 .text.m2m_wifi_set_power_profile
                0x00000000       0x1e build/sam_d21_xpro_winc1500/production/_ext/386821479/m2m_wifi.o
 .text.m2m_wifi_set_tx_power
                0x00000000       0x1e build/sam_d21_xpro_winc1500/production/_ext/386821479/m2m_wifi.o
 .text.m2m_wifi_set_gain_table_idx
                0x00000000       0x1e build/sam_d21_xpro_winc1500/production/_ext/386821479/m2m_wifi.o
 .text.m2m_wifi_enable_firmware_logs
                0x00000000       0x1e build/sam_d21_xpro_winc1500/production/_ext/386821479/m2m_wifi.o
 .text.m2m_wifi_set_battery_voltage
                0x00000000       0x20 build/sam_d21_xpro_winc1500/production/_ext/386821479/m2m_wifi.o
 .text.m2m_wifi_prng_get_random_bytes
                0x00000000       0x48 build/sam_d21_xpro_winc1500/production/_ext/386821479/m2m_wifi.o
 .text.m2m_wifi_conf_auto_rate
                0x00000000       0x1c build/sam_d21_xpro_winc1500/production/_ext/386821479/m2m_wifi.o
 .text.m2m_wifi_enable_mac_mcast
                0x00000000       0x34 build/sam_d21_xpro_winc1500/production/_ext/386821479/m2m_wifi.o
 .text.m2m_wifi_set_receive_buffer
                0x00000000       0x20 build/sam_d21_xpro_winc1500/production/_ext/386821479/m2m_wifi.o
 .text.m2m_wifi_reinit_hold
                0x00000000        0xe build/sam_d21_xpro_winc1500/production/_ext/386821479/m2m_wifi.o
 .text.m2m_wifi_reinit
                0x00000000       0x16 build/sam_d21_xpro_winc1500/production/_ext/386821479/m2m_wifi.o
 .text.m2m_wifi_reinit_start
                0x00000000        0x8 build/sam_d21_xpro_winc1500/production/_ext/386821479/m2m_wifi.o
 .text.m2m_wifi_get_state
                0x00000000        0xc build/sam_d21_xpro_winc1500/production/_ext/386821479/m2m_wifi.o
 .text.m2m_wifi_enable_roaming
                0x00000000       0x2e build/sam_d21_xpro_winc1500/production/_ext/386821479/m2m_wifi.o
 .text.m2m_wifi_disable_roaming
                0x00000000       0x1e build/sam_d21_xpro_winc1500/production/_ext/386821479/m2m_wifi.o
 .bss.gau8ethRcvBuf
                0x00000000        0x4 build/sam_d21_xpro_winc1500/production/_ext/386821479/m2m_wifi.o
 .bss.gpfAppEthCb
                0x00000000        0x4 build/sam_d21_xpro_winc1500/production/_ext/386821479/m2m_wifi.o
 .bss.gpfAppWifiCb
                0x00000000        0x4 build/sam_d21_xpro_winc1500/production/_ext/386821479/m2m_wifi.o
 .bss.gu16ethRcvBufSize
                0x00000000        0x2 build/sam_d21_xpro_winc1500/production/_ext/386821479/m2m_wifi.o
 .bss.gu8ChNum  0x00000000        0x1 build/sam_d21_xpro_winc1500/production/_ext/386821479/m2m_wifi.o
 .bss.gu8scanInProgress
                0x00000000        0x1 build/sam_d21_xpro_winc1500/production/_ext/386821479/m2m_wifi.o
 .text          0x00000000        0x0 build/sam_d21_xpro_winc1500/production/_ext/386821479/nmasic.o
 .data          0x00000000        0x0 build/sam_d21_xpro_winc1500/production/_ext/386821479/nmasic.o
 .bss           0x00000000        0x0 build/sam_d21_xpro_winc1500/production/_ext/386821479/nmasic.o
 .text.chip_apply_conf
                0x00000000       0x30 build/sam_d21_xpro_winc1500/production/_ext/386821479/nmasic.o
 .text.chip_idle
                0x00000000       0x28 build/sam_d21_xpro_winc1500/production/_ext/386821479/nmasic.o
 .text.cpu_start
                0x00000000       0xac build/sam_d21_xpro_winc1500/production/_ext/386821479/nmasic.o
 .text.nmi_get_rfrevid
                0x00000000       0x20 build/sam_d21_xpro_winc1500/production/_ext/386821479/nmasic.o
 .text.restore_pmu_settings_after_global_reset
                0x00000000       0x28 build/sam_d21_xpro_winc1500/production/_ext/386821479/nmasic.o
 .text.nmi_update_pll
                0x00000000       0x28 build/sam_d21_xpro_winc1500/production/_ext/386821479/nmasic.o
 .text.nmi_set_sys_clk_src_to_xo
                0x00000000       0x20 build/sam_d21_xpro_winc1500/production/_ext/386821479/nmasic.o
 .text.chip_reset
                0x00000000       0x18 build/sam_d21_xpro_winc1500/production/_ext/386821479/nmasic.o
 .text.wait_for_bootrom
                0x00000000       0xf0 build/sam_d21_xpro_winc1500/production/_ext/386821479/nmasic.o
 .text.wait_for_firmware_start
                0x00000000       0x6c build/sam_d21_xpro_winc1500/production/_ext/386821479/nmasic.o
 .text.chip_deinit
                0x00000000       0x30 build/sam_d21_xpro_winc1500/production/_ext/386821479/nmasic.o
 .text.set_gpio_dir
                0x00000000       0x40 build/sam_d21_xpro_winc1500/production/_ext/386821479/nmasic.o
 .text.set_gpio_val
                0x00000000       0x40 build/sam_d21_xpro_winc1500/production/_ext/386821479/nmasic.o
 .text.get_gpio_val
                0x00000000       0x28 build/sam_d21_xpro_winc1500/production/_ext/386821479/nmasic.o
 .text.pullup_ctrl
                0x00000000       0x38 build/sam_d21_xpro_winc1500/production/_ext/386821479/nmasic.o
 .text.nmi_get_otp_mac_address
                0x00000000       0x80 build/sam_d21_xpro_winc1500/production/_ext/386821479/nmasic.o
 .text.nmi_get_mac_address
                0x00000000       0x60 build/sam_d21_xpro_winc1500/production/_ext/386821479/nmasic.o
 .text          0x00000000        0x0 build/sam_d21_xpro_winc1500/production/_ext/386821479/nmbus.o
 .data          0x00000000        0x0 build/sam_d21_xpro_winc1500/production/_ext/386821479/nmbus.o
 .bss           0x00000000        0x0 build/sam_d21_xpro_winc1500/production/_ext/386821479/nmbus.o
 .text.nm_bus_iface_deinit
                0x00000000        0x4 build/sam_d21_xpro_winc1500/production/_ext/386821479/nmbus.o
 .text.nm_bus_iface_reconfigure
                0x00000000        0x4 build/sam_d21_xpro_winc1500/production/_ext/386821479/nmbus.o
 .text          0x00000000        0x0 build/sam_d21_xpro_winc1500/production/_ext/386821479/nmdrv.o
 .data          0x00000000        0x0 build/sam_d21_xpro_winc1500/production/_ext/386821479/nmdrv.o
 .bss           0x00000000        0x0 build/sam_d21_xpro_winc1500/production/_ext/386821479/nmdrv.o
 .text.nm_get_firmware_info
                0x00000000       0xac build/sam_d21_xpro_winc1500/production/_ext/386821479/nmdrv.o
 .text.nm_get_firmware_full_info
                0x00000000       0xd0 build/sam_d21_xpro_winc1500/production/_ext/386821479/nmdrv.o
 .text.nm_get_ota_firmware_info
                0x00000000       0xd0 build/sam_d21_xpro_winc1500/production/_ext/386821479/nmdrv.o
 .text.nm_drv_init_start
                0x00000000       0x42 build/sam_d21_xpro_winc1500/production/_ext/386821479/nmdrv.o
 .text.nm_drv_init
                0x00000000       0x16 build/sam_d21_xpro_winc1500/production/_ext/386821479/nmdrv.o
 .text.nm_drv_deinit
                0x00000000       0x2a build/sam_d21_xpro_winc1500/production/_ext/386821479/nmdrv.o
 .text          0x00000000        0x0 build/sam_d21_xpro_winc1500/production/_ext/386821479/nmspi.o
 .data          0x00000000        0x0 build/sam_d21_xpro_winc1500/production/_ext/386821479/nmspi.o
 .bss           0x00000000        0x0 build/sam_d21_xpro_winc1500/production/_ext/386821479/nmspi.o
 .text.nm_spi_deinit
                0x00000000       0x10 build/sam_d21_xpro_winc1500/production/_ext/386821479/nmspi.o
 .text          0x00000000        0x0 build/sam_d21_xpro_winc1500/production/_ext/386821479/m2m_ota.o
 .data          0x00000000        0x0 build/sam_d21_xpro_winc1500/production/_ext/386821479/m2m_ota.o
 .bss           0x00000000        0x0 build/sam_d21_xpro_winc1500/production/_ext/386821479/m2m_ota.o
 .text.m2m_ota_cb
                0x00000000      0x168 build/sam_d21_xpro_winc1500/production/_ext/386821479/m2m_ota.o
 .text.m2m_ota_host_file_get_id
                0x00000000        0xc build/sam_d21_xpro_winc1500/production/_ext/386821479/m2m_ota.o
 .text.m2m_ota_init
                0x00000000       0x40 build/sam_d21_xpro_winc1500/production/_ext/386821479/m2m_ota.o
 .text.m2m_ota_notif_set_url
                0x00000000       0x24 build/sam_d21_xpro_winc1500/production/_ext/386821479/m2m_ota.o
 .text.m2m_ota_notif_check_for_update
                0x00000000       0x1a build/sam_d21_xpro_winc1500/production/_ext/386821479/m2m_ota.o
 .text.m2m_ota_notif_sched
                0x00000000       0x1a build/sam_d21_xpro_winc1500/production/_ext/386821479/m2m_ota.o
 .text.m2m_ota_start_update
                0x00000000       0x24 build/sam_d21_xpro_winc1500/production/_ext/386821479/m2m_ota.o
 .text.m2m_ota_rollback
                0x00000000       0x1a build/sam_d21_xpro_winc1500/production/_ext/386821479/m2m_ota.o
 .text.m2m_ota_abort
                0x00000000       0x1a build/sam_d21_xpro_winc1500/production/_ext/386821479/m2m_ota.o
 .text.m2m_ota_switch_firmware
                0x00000000       0x1a build/sam_d21_xpro_winc1500/production/_ext/386821479/m2m_ota.o
 .text.m2m_ota_get_firmware_version
                0x00000000       0x1e build/sam_d21_xpro_winc1500/production/_ext/386821479/m2m_ota.o
 .text.m2m_ota_host_file_get
                0x00000000       0x64 build/sam_d21_xpro_winc1500/production/_ext/386821479/m2m_ota.o
 .text.m2m_ota_host_file_read_hif
                0x00000000       0x5c build/sam_d21_xpro_winc1500/production/_ext/386821479/m2m_ota.o
 .text.m2m_ota_host_file_read_spi
                0x00000000       0xa0 build/sam_d21_xpro_winc1500/production/_ext/386821479/m2m_ota.o
 .text.m2m_ota_host_file_erase
                0x00000000       0x4c build/sam_d21_xpro_winc1500/production/_ext/386821479/m2m_ota.o
 .bss.FileBlock
                0x00000000        0x8 build/sam_d21_xpro_winc1500/production/_ext/386821479/m2m_ota.o
 .bss.gpfHFDEraseCb
                0x00000000        0x4 build/sam_d21_xpro_winc1500/production/_ext/386821479/m2m_ota.o
 .bss.gpfHFDGetCb
                0x00000000        0x4 build/sam_d21_xpro_winc1500/production/_ext/386821479/m2m_ota.o
 .bss.gpfHFDReadCb
                0x00000000        0x4 build/sam_d21_xpro_winc1500/production/_ext/386821479/m2m_ota.o
 .bss.gpfOtaNotifCb
                0x00000000        0x4 build/sam_d21_xpro_winc1500/production/_ext/386821479/m2m_ota.o
 .bss.gpfOtaUpdateCb
                0x00000000        0x4 build/sam_d21_xpro_winc1500/production/_ext/386821479/m2m_ota.o
 .bss.u32FlashHFDSize.9437
                0x00000000        0x4 build/sam_d21_xpro_winc1500/production/_ext/386821479/m2m_ota.o
 .bss.u32FlashHFDStart.9436
                0x00000000        0x4 build/sam_d21_xpro_winc1500/production/_ext/386821479/m2m_ota.o
 .data.gu8CurrFileHandlerID
                0x00000000        0x1 build/sam_d21_xpro_winc1500/production/_ext/386821479/m2m_ota.o
 .debug_info    0x00000000     0x28dd build/sam_d21_xpro_winc1500/production/_ext/386821479/m2m_ota.o
 .debug_abbrev  0x00000000      0x36c build/sam_d21_xpro_winc1500/production/_ext/386821479/m2m_ota.o
 .debug_loc     0x00000000      0xbe7 build/sam_d21_xpro_winc1500/production/_ext/386821479/m2m_ota.o
 .debug_aranges
                0x00000000       0x90 build/sam_d21_xpro_winc1500/production/_ext/386821479/m2m_ota.o
 .debug_ranges  0x00000000       0x80 build/sam_d21_xpro_winc1500/production/_ext/386821479/m2m_ota.o
 .debug_line    0x00000000      0x580 build/sam_d21_xpro_winc1500/production/_ext/386821479/m2m_ota.o
 .debug_str     0x00000000      0x10b build/sam_d21_xpro_winc1500/production/_ext/386821479/m2m_ota.o
 .comment       0x00000000       0x3d build/sam_d21_xpro_winc1500/production/_ext/386821479/m2m_ota.o
 .debug_frame   0x00000000      0x18c build/sam_d21_xpro_winc1500/production/_ext/386821479/m2m_ota.o
 .ARM.attributes
                0x00000000       0x32 build/sam_d21_xpro_winc1500/production/_ext/386821479/m2m_ota.o
 .text          0x00000000        0x0 build/sam_d21_xpro_winc1500/production/_ext/386821479/m2m_ssl.o
 .data          0x00000000        0x0 build/sam_d21_xpro_winc1500/production/_ext/386821479/m2m_ssl.o
 .bss           0x00000000        0x0 build/sam_d21_xpro_winc1500/production/_ext/386821479/m2m_ssl.o
 .text.m2m_ssl_cb
                0x00000000      0x118 build/sam_d21_xpro_winc1500/production/_ext/386821479/m2m_ssl.o
 .text.m2m_ssl_handshake_rsp
                0x00000000       0x1a build/sam_d21_xpro_winc1500/production/_ext/386821479/m2m_ssl.o
 .text.m2m_ssl_send_certs_to_winc
                0x00000000      0x174 build/sam_d21_xpro_winc1500/production/_ext/386821479/m2m_ssl.o
 .text.m2m_ssl_retrieve_cert
                0x00000000      0x128 build/sam_d21_xpro_winc1500/production/_ext/386821479/m2m_ssl.o
 .text.m2m_ssl_retrieve_hash
                0x00000000       0x3c build/sam_d21_xpro_winc1500/production/_ext/386821479/m2m_ssl.o
 .text.m2m_ssl_stop_processing_certs
                0x00000000       0x10 build/sam_d21_xpro_winc1500/production/_ext/386821479/m2m_ssl.o
 .text.m2m_ssl_ecc_process_done
                0x00000000        0xc build/sam_d21_xpro_winc1500/production/_ext/386821479/m2m_ssl.o
 .text.m2m_ssl_set_active_ciphersuites
                0x00000000       0x1e build/sam_d21_xpro_winc1500/production/_ext/386821479/m2m_ssl.o
 .text.m2m_ssl_init
                0x00000000       0x2c build/sam_d21_xpro_winc1500/production/_ext/386821479/m2m_ssl.o
 .bss.gpfAppSSLCb
                0x00000000        0x4 build/sam_d21_xpro_winc1500/production/_ext/386821479/m2m_ssl.o
 .bss.gu32HIFAddr
                0x00000000        0x4 build/sam_d21_xpro_winc1500/production/_ext/386821479/m2m_ssl.o
 .data.genuStatus
                0x00000000        0x1 build/sam_d21_xpro_winc1500/production/_ext/386821479/m2m_ssl.o
 .debug_info    0x00000000     0x1f24 build/sam_d21_xpro_winc1500/production/_ext/386821479/m2m_ssl.o
 .debug_abbrev  0x00000000      0x344 build/sam_d21_xpro_winc1500/production/_ext/386821479/m2m_ssl.o
 .debug_loc     0x00000000      0xbd8 build/sam_d21_xpro_winc1500/production/_ext/386821479/m2m_ssl.o
 .debug_aranges
                0x00000000       0x60 build/sam_d21_xpro_winc1500/production/_ext/386821479/m2m_ssl.o
 .debug_ranges  0x00000000       0xa8 build/sam_d21_xpro_winc1500/production/_ext/386821479/m2m_ssl.o
 .debug_line    0x00000000      0x4a5 build/sam_d21_xpro_winc1500/production/_ext/386821479/m2m_ssl.o
 .debug_str     0x00000000       0x58 build/sam_d21_xpro_winc1500/production/_ext/386821479/m2m_ssl.o
 .comment       0x00000000       0x3d build/sam_d21_xpro_winc1500/production/_ext/386821479/m2m_ssl.o
 .debug_frame   0x00000000      0x100 build/sam_d21_xpro_winc1500/production/_ext/386821479/m2m_ssl.o
 .ARM.attributes
                0x00000000       0x32 build/sam_d21_xpro_winc1500/production/_ext/386821479/m2m_ssl.o
 .text          0x00000000        0x0 build/sam_d21_xpro_winc1500/production/_ext/39655908/socket.o
 .data          0x00000000        0x0 build/sam_d21_xpro_winc1500/production/_ext/39655908/socket.o
 .bss           0x00000000        0x0 build/sam_d21_xpro_winc1500/production/_ext/39655908/socket.o
 .text.m2m_ip_cb
                0x00000000      0x3b0 build/sam_d21_xpro_winc1500/production/_ext/39655908/socket.o
 .text.socketInit
                0x00000000       0x3c build/sam_d21_xpro_winc1500/production/_ext/39655908/socket.o
 .text.socketDeinit
                0x00000000       0x34 build/sam_d21_xpro_winc1500/production/_ext/39655908/socket.o
 .text.registerSocketCallback
                0x00000000       0x14 build/sam_d21_xpro_winc1500/production/_ext/39655908/socket.o
 .text.registerSocketEventCallback
                0x00000000        0xc build/sam_d21_xpro_winc1500/production/_ext/39655908/socket.o
 .text.registerSocketResolveCallback
                0x00000000        0xc build/sam_d21_xpro_winc1500/production/_ext/39655908/socket.o
 .text.socket   0x00000000      0x148 build/sam_d21_xpro_winc1500/production/_ext/39655908/socket.o
 .text.bind     0x00000000       0x80 build/sam_d21_xpro_winc1500/production/_ext/39655908/socket.o
 .text.listen   0x00000000       0x54 build/sam_d21_xpro_winc1500/production/_ext/39655908/socket.o
 .text.accept   0x00000000       0x24 build/sam_d21_xpro_winc1500/production/_ext/39655908/socket.o
 .text.connect  0x00000000       0x88 build/sam_d21_xpro_winc1500/production/_ext/39655908/socket.o
 .text.send     0x00000000       0x94 build/sam_d21_xpro_winc1500/production/_ext/39655908/socket.o
 .text.sendto   0x00000000       0xac build/sam_d21_xpro_winc1500/production/_ext/39655908/socket.o
 .text.recv     0x00000000       0x90 build/sam_d21_xpro_winc1500/production/_ext/39655908/socket.o
 .text.shutdown
                0x00000000       0x68 build/sam_d21_xpro_winc1500/production/_ext/39655908/socket.o
 .text.recvfrom
                0x00000000       0x98 build/sam_d21_xpro_winc1500/production/_ext/39655908/socket.o
 .text.gethostbyname
                0x00000000       0x2e build/sam_d21_xpro_winc1500/production/_ext/39655908/socket.o
 .text.setsockopt
                0x00000000      0x178 build/sam_d21_xpro_winc1500/production/_ext/39655908/socket.o
 .text.getsockopt
                0x00000000        0x4 build/sam_d21_xpro_winc1500/production/_ext/39655908/socket.o
 .text.m2m_ping_req
                0x00000000       0x3c build/sam_d21_xpro_winc1500/production/_ext/39655908/socket.o
 .text.sslEnableCertExpirationCheck
                0x00000000       0x1e build/sam_d21_xpro_winc1500/production/_ext/39655908/socket.o
 .text.IsSocketReady
                0x00000000        0xc build/sam_d21_xpro_winc1500/production/_ext/39655908/socket.o
 .bss.gbSocketInit
                0x00000000        0x1 build/sam_d21_xpro_winc1500/production/_ext/39655908/socket.o
 .bss.gu16SessionID
                0x00000000        0x2 build/sam_d21_xpro_winc1500/production/_ext/39655908/socket.o
 .bss.u8NextTcpSock.9218
                0x00000000        0x1 build/sam_d21_xpro_winc1500/production/_ext/39655908/socket.o
 .bss.u8NextUdpSock.9219
                0x00000000        0x1 build/sam_d21_xpro_winc1500/production/_ext/39655908/socket.o
 .debug_info    0x00000000     0x36a2 build/sam_d21_xpro_winc1500/production/_ext/39655908/socket.o
 .debug_abbrev  0x00000000      0x4ac build/sam_d21_xpro_winc1500/production/_ext/39655908/socket.o
 .debug_loc     0x00000000     0x1ea7 build/sam_d21_xpro_winc1500/production/_ext/39655908/socket.o
 .debug_aranges
                0x00000000       0xc8 build/sam_d21_xpro_winc1500/production/_ext/39655908/socket.o
 .debug_ranges  0x00000000      0x188 build/sam_d21_xpro_winc1500/production/_ext/39655908/socket.o
 .debug_line    0x00000000      0x76f build/sam_d21_xpro_winc1500/production/_ext/39655908/socket.o
 .debug_str     0x00000000      0x171 build/sam_d21_xpro_winc1500/production/_ext/39655908/socket.o
 .comment       0x00000000       0x3d build/sam_d21_xpro_winc1500/production/_ext/39655908/socket.o
 .debug_frame   0x00000000      0x254 build/sam_d21_xpro_winc1500/production/_ext/39655908/socket.o
 .ARM.attributes
                0x00000000       0x32 build/sam_d21_xpro_winc1500/production/_ext/39655908/socket.o
 COMMON         0x00000000       0xbc build/sam_d21_xpro_winc1500/production/_ext/39655908/socket.o
 .text          0x00000000        0x0 build/sam_d21_xpro_winc1500/production/_ext/39655908/inet_ntop.o
 .data          0x00000000        0x0 build/sam_d21_xpro_winc1500/production/_ext/39655908/inet_ntop.o
 .bss           0x00000000        0x0 build/sam_d21_xpro_winc1500/production/_ext/39655908/inet_ntop.o
 .text.inet_ntop
                0x00000000       0xc6 build/sam_d21_xpro_winc1500/production/_ext/39655908/inet_ntop.o
 .debug_info    0x00000000     0x1116 build/sam_d21_xpro_winc1500/production/_ext/39655908/inet_ntop.o
 .debug_abbrev  0x00000000      0x1d6 build/sam_d21_xpro_winc1500/production/_ext/39655908/inet_ntop.o
 .debug_loc     0x00000000      0x345 build/sam_d21_xpro_winc1500/production/_ext/39655908/inet_ntop.o
 .debug_aranges
                0x00000000       0x20 build/sam_d21_xpro_winc1500/production/_ext/39655908/inet_ntop.o
 .debug_ranges  0x00000000       0x10 build/sam_d21_xpro_winc1500/production/_ext/39655908/inet_ntop.o
 .debug_line    0x00000000      0x35f build/sam_d21_xpro_winc1500/production/_ext/39655908/inet_ntop.o
 .debug_str     0x00000000        0xe build/sam_d21_xpro_winc1500/production/_ext/39655908/inet_ntop.o
 .comment       0x00000000       0x3d build/sam_d21_xpro_winc1500/production/_ext/39655908/inet_ntop.o
 .debug_frame   0x00000000       0x3c build/sam_d21_xpro_winc1500/production/_ext/39655908/inet_ntop.o
 .ARM.attributes
                0x00000000       0x32 build/sam_d21_xpro_winc1500/production/_ext/39655908/inet_ntop.o
 .text          0x00000000        0x0 build/sam_d21_xpro_winc1500/production/_ext/39655908/inet_addr.o
 .data          0x00000000        0x0 build/sam_d21_xpro_winc1500/production/_ext/39655908/inet_addr.o
 .bss           0x00000000        0x0 build/sam_d21_xpro_winc1500/production/_ext/39655908/inet_addr.o
 .text.inet_addr
                0x00000000       0xc8 build/sam_d21_xpro_winc1500/production/_ext/39655908/inet_addr.o
 .debug_info    0x00000000     0x10b8 build/sam_d21_xpro_winc1500/production/_ext/39655908/inet_addr.o
 .debug_abbrev  0x00000000      0x1d1 build/sam_d21_xpro_winc1500/production/_ext/39655908/inet_addr.o
 .debug_loc     0x00000000      0x275 build/sam_d21_xpro_winc1500/production/_ext/39655908/inet_addr.o
 .debug_aranges
                0x00000000       0x20 build/sam_d21_xpro_winc1500/production/_ext/39655908/inet_addr.o
 .debug_ranges  0x00000000       0x10 build/sam_d21_xpro_winc1500/production/_ext/39655908/inet_addr.o
 .debug_line    0x00000000      0x32a build/sam_d21_xpro_winc1500/production/_ext/39655908/inet_addr.o
 .debug_str     0x00000000        0xe build/sam_d21_xpro_winc1500/production/_ext/39655908/inet_addr.o
 .comment       0x00000000       0x3d build/sam_d21_xpro_winc1500/production/_ext/39655908/inet_addr.o
 .debug_frame   0x00000000       0x34 build/sam_d21_xpro_winc1500/production/_ext/39655908/inet_addr.o
 .ARM.attributes
                0x00000000       0x32 build/sam_d21_xpro_winc1500/production/_ext/39655908/inet_addr.o
 .text          0x00000000        0x0 build/sam_d21_xpro_winc1500/production/_ext/1591721076/spi_flash.o
 .data          0x00000000        0x0 build/sam_d21_xpro_winc1500/production/_ext/1591721076/spi_flash.o
 .bss           0x00000000        0x0 build/sam_d21_xpro_winc1500/production/_ext/1591721076/spi_flash.o
 .text.spi_flash_load_to_cortus_mem
                0x00000000       0xa4 build/sam_d21_xpro_winc1500/production/_ext/1591721076/spi_flash.o
 .text.spi_flash_write_enable
                0x00000000       0x78 build/sam_d21_xpro_winc1500/production/_ext/1591721076/spi_flash.o
 .text.spi_flash_read_status_reg
                0x00000000       0x88 build/sam_d21_xpro_winc1500/production/_ext/1591721076/spi_flash.o
 .text.spi_flash_pp
                0x00000000      0x140 build/sam_d21_xpro_winc1500/production/_ext/1591721076/spi_flash.o
 .text.spi_flash_enable
                0x00000000       0xe8 build/sam_d21_xpro_winc1500/production/_ext/1591721076/spi_flash.o
 .text.spi_flash_read
                0x00000000       0x6c build/sam_d21_xpro_winc1500/production/_ext/1591721076/spi_flash.o
 .text.spi_flash_write
                0x00000000       0x82 build/sam_d21_xpro_winc1500/production/_ext/1591721076/spi_flash.o
 .text.spi_flash_erase
                0x00000000      0x104 build/sam_d21_xpro_winc1500/production/_ext/1591721076/spi_flash.o
 .text.spi_flash_get_size
                0x00000000       0xb4 build/sam_d21_xpro_winc1500/production/_ext/1591721076/spi_flash.o
 .bss.gu32InternalFlashSize.8332
                0x00000000        0x4 build/sam_d21_xpro_winc1500/production/_ext/1591721076/spi_flash.o
 .debug_info    0x00000000     0x2169 build/sam_d21_xpro_winc1500/production/_ext/1591721076/spi_flash.o
 .debug_abbrev  0x00000000      0x3e5 build/sam_d21_xpro_winc1500/production/_ext/1591721076/spi_flash.o
 .debug_loc     0x00000000      0xbfb build/sam_d21_xpro_winc1500/production/_ext/1591721076/spi_flash.o
 .debug_aranges
                0x00000000       0x60 build/sam_d21_xpro_winc1500/production/_ext/1591721076/spi_flash.o
 .debug_ranges  0x00000000       0x80 build/sam_d21_xpro_winc1500/production/_ext/1591721076/spi_flash.o
 .debug_line    0x00000000      0x4a3 build/sam_d21_xpro_winc1500/production/_ext/1591721076/spi_flash.o
 .debug_str     0x00000000       0x95 build/sam_d21_xpro_winc1500/production/_ext/1591721076/spi_flash.o
 .comment       0x00000000       0x3d build/sam_d21_xpro_winc1500/production/_ext/1591721076/spi_flash.o
 .debug_frame   0x00000000      0x134 build/sam_d21_xpro_winc1500/production/_ext/1591721076/spi_flash.o
 .ARM.attributes
                0x00000000       0x32 build/sam_d21_xpro_winc1500/production/_ext/1591721076/spi_flash.o
 .text          0x00000000        0x0 build/sam_d21_xpro_winc1500/production/_ext/1591721076/flexible_flash.o
 .data          0x00000000        0x0 build/sam_d21_xpro_winc1500/production/_ext/1591721076/flexible_flash.o
 .bss           0x00000000        0x0 build/sam_d21_xpro_winc1500/production/_ext/1591721076/flexible_flash.o
 .text.spi_flexible_flash_find_section
                0x00000000       0x98 build/sam_d21_xpro_winc1500/production/_ext/1591721076/flexible_flash.o
 .debug_info    0x00000000     0x11bb build/sam_d21_xpro_winc1500/production/_ext/1591721076/flexible_flash.o
 .debug_abbrev  0x00000000      0x221 build/sam_d21_xpro_winc1500/production/_ext/1591721076/flexible_flash.o
 .debug_loc     0x00000000      0x1f0 build/sam_d21_xpro_winc1500/production/_ext/1591721076/flexible_flash.o
 .debug_aranges
                0x00000000       0x20 build/sam_d21_xpro_winc1500/production/_ext/1591721076/flexible_flash.o
 .debug_ranges  0x00000000       0x28 build/sam_d21_xpro_winc1500/production/_ext/1591721076/flexible_flash.o
 .debug_line    0x00000000      0x33f build/sam_d21_xpro_winc1500/production/_ext/1591721076/flexible_flash.o
 .debug_str     0x00000000       0x1d build/sam_d21_xpro_winc1500/production/_ext/1591721076/flexible_flash.o
 .comment       0x00000000       0x3d build/sam_d21_xpro_winc1500/production/_ext/1591721076/flexible_flash.o
 .debug_frame   0x00000000       0x38 build/sam_d21_xpro_winc1500/production/_ext/1591721076/flexible_flash.o
 .ARM.attributes
                0x00000000       0x32 build/sam_d21_xpro_winc1500/production/_ext/1591721076/flexible_flash.o
 .text          0x00000000        0x0 build/sam_d21_xpro_winc1500/production/_ext/1879120711/wdrv_winc_osal.o
 .data          0x00000000        0x0 build/sam_d21_xpro_winc1500/production/_ext/1879120711/wdrv_winc_osal.o
 .bss           0x00000000        0x0 build/sam_d21_xpro_winc1500/production/_ext/1879120711/wdrv_winc_osal.o
 .text          0x00000000        0x0 build/sam_d21_xpro_winc1500/production/_ext/2003669979/wdrv_winc.o
 .data          0x00000000        0x0 build/sam_d21_xpro_winc1500/production/_ext/2003669979/wdrv_winc.o
 .bss           0x00000000        0x0 build/sam_d21_xpro_winc1500/production/_ext/2003669979/wdrv_winc.o
 .text._WDRV_WINC_OTAUpdateCallback
                0x00000000       0x48 build/sam_d21_xpro_winc1500/production/_ext/2003669979/wdrv_winc.o
 .text._WDRV_WINC_HostFileGetCallback
                0x00000000       0x48 build/sam_d21_xpro_winc1500/production/_ext/2003669979/wdrv_winc.o
 .text._WDRV_WINC_HostFileEraseCallback
                0x00000000       0x2c build/sam_d21_xpro_winc1500/production/_ext/2003669979/wdrv_winc.o
 .text._WDRV_WINC_SSLCallback
                0x00000000       0xb0 build/sam_d21_xpro_winc1500/production/_ext/2003669979/wdrv_winc.o
 .text._WDRV_WINC_HostFileReadHIFCallback
                0x00000000       0x8c build/sam_d21_xpro_winc1500/production/_ext/2003669979/wdrv_winc.o
 .text._WDRV_WINC_WifiCallback
                0x00000000      0x384 build/sam_d21_xpro_winc1500/production/_ext/2003669979/wdrv_winc.o
 .rodata._WDRV_WINC_WifiCallback
                0x00000000       0xbc build/sam_d21_xpro_winc1500/production/_ext/2003669979/wdrv_winc.o
 .text.WDRV_WINC_Deinitialize
                0x00000000       0x1e build/sam_d21_xpro_winc1500/production/_ext/2003669979/wdrv_winc.o
 .text.WDRV_WINC_Reinitialize
                0x00000000        0x2 build/sam_d21_xpro_winc1500/production/_ext/2003669979/wdrv_winc.o
 .text.WDRV_WINC_DebugRegisterCallback
                0x00000000        0xc build/sam_d21_xpro_winc1500/production/_ext/2003669979/wdrv_winc.o
 .text.WDRV_WINC_Open
                0x00000000      0x17c build/sam_d21_xpro_winc1500/production/_ext/2003669979/wdrv_winc.o
 .text.WDRV_WINC_Close
                0x00000000       0x38 build/sam_d21_xpro_winc1500/production/_ext/2003669979/wdrv_winc.o
 .text.WDRV_WINC_MulticastMACFilterAdd
                0x00000000       0x22 build/sam_d21_xpro_winc1500/production/_ext/2003669979/wdrv_winc.o
 .text.WDRV_WINC_MulticastMACFilterRemove
                0x00000000       0x22 build/sam_d21_xpro_winc1500/production/_ext/2003669979/wdrv_winc.o
 .text.WDRV_WINC_EthernetAddressGet
                0x00000000       0x24 build/sam_d21_xpro_winc1500/production/_ext/2003669979/wdrv_winc.o
 .text.WDRV_WINC_OperatingModeGet
                0x00000000       0x1a build/sam_d21_xpro_winc1500/production/_ext/2003669979/wdrv_winc.o
 .text.WDRV_WINC_UserHandleSet
                0x00000000       0x18 build/sam_d21_xpro_winc1500/production/_ext/2003669979/wdrv_winc.o
 .text.WDRV_WINC_UserHandleGet
                0x00000000       0x14 build/sam_d21_xpro_winc1500/production/_ext/2003669979/wdrv_winc.o
 .text.WDRV_WINC_InfoDriverVersionGet
                0x00000000       0x38 build/sam_d21_xpro_winc1500/production/_ext/2003669979/wdrv_winc.o
 .text.WDRV_WINC_InfoDeviceFirmwareVersionGet
                0x00000000       0x7e build/sam_d21_xpro_winc1500/production/_ext/2003669979/wdrv_winc.o
 .text.WDRV_WINC_InfoDeviceIDGet
                0x00000000       0x1a build/sam_d21_xpro_winc1500/production/_ext/2003669979/wdrv_winc.o
 .text.WDRV_WINC_InfoDeviceMACAddressGet
                0x00000000       0x4e build/sam_d21_xpro_winc1500/production/_ext/2003669979/wdrv_winc.o
 .text.WDRV_WINC_InfoDeviceNameSet
                0x00000000       0x34 build/sam_d21_xpro_winc1500/production/_ext/2003669979/wdrv_winc.o
 .text.WDRV_WINC_GainTableIndexSet
                0x00000000       0x22 build/sam_d21_xpro_winc1500/production/_ext/2003669979/wdrv_winc.o
 .text.WDRV_WINC_ISR
                0x00000000       0x10 build/sam_d21_xpro_winc1500/production/_ext/2003669979/wdrv_winc.o
 .text          0x00000000        0x0 build/sam_d21_xpro_winc1500/production/_ext/2003669979/wdrv_winc_assoc.o
 .data          0x00000000        0x0 build/sam_d21_xpro_winc1500/production/_ext/2003669979/wdrv_winc_assoc.o
 .bss           0x00000000        0x0 build/sam_d21_xpro_winc1500/production/_ext/2003669979/wdrv_winc_assoc.o
 .text.WDRV_WINC_AssociationSSIDGet
                0x00000000       0x4c build/sam_d21_xpro_winc1500/production/_ext/2003669979/wdrv_winc_assoc.o
 .text.WDRV_WINC_AssociationPeerAddressGet
                0x00000000       0x4c build/sam_d21_xpro_winc1500/production/_ext/2003669979/wdrv_winc_assoc.o
 .text.WDRV_WINC_AssociationAuthTypeGet
                0x00000000       0x44 build/sam_d21_xpro_winc1500/production/_ext/2003669979/wdrv_winc_assoc.o
 .text.WDRV_WINC_AssociationRSSIGet
                0x00000000       0x52 build/sam_d21_xpro_winc1500/production/_ext/2003669979/wdrv_winc_assoc.o
 .debug_info    0x00000000     0x29b3 build/sam_d21_xpro_winc1500/production/_ext/2003669979/wdrv_winc_assoc.o
 .debug_abbrev  0x00000000      0x2b2 build/sam_d21_xpro_winc1500/production/_ext/2003669979/wdrv_winc_assoc.o
 .debug_loc     0x00000000      0x5c3 build/sam_d21_xpro_winc1500/production/_ext/2003669979/wdrv_winc_assoc.o
 .debug_aranges
                0x00000000       0x38 build/sam_d21_xpro_winc1500/production/_ext/2003669979/wdrv_winc_assoc.o
 .debug_ranges  0x00000000       0x28 build/sam_d21_xpro_winc1500/production/_ext/2003669979/wdrv_winc_assoc.o
 .debug_line    0x00000000      0x540 build/sam_d21_xpro_winc1500/production/_ext/2003669979/wdrv_winc_assoc.o
 .debug_str     0x00000000       0xb7 build/sam_d21_xpro_winc1500/production/_ext/2003669979/wdrv_winc_assoc.o
 .comment       0x00000000       0x3d build/sam_d21_xpro_winc1500/production/_ext/2003669979/wdrv_winc_assoc.o
 .debug_frame   0x00000000       0x70 build/sam_d21_xpro_winc1500/production/_ext/2003669979/wdrv_winc_assoc.o
 .ARM.attributes
                0x00000000       0x32 build/sam_d21_xpro_winc1500/production/_ext/2003669979/wdrv_winc_assoc.o
 .text          0x00000000        0x0 build/sam_d21_xpro_winc1500/production/_ext/2003669979/wdrv_winc_authctx.o
 .data          0x00000000        0x0 build/sam_d21_xpro_winc1500/production/_ext/2003669979/wdrv_winc_authctx.o
 .bss           0x00000000        0x0 build/sam_d21_xpro_winc1500/production/_ext/2003669979/wdrv_winc_authctx.o
 .text.WDRV_WINC_AuthCtxIsValid
                0x00000000       0x3e build/sam_d21_xpro_winc1500/production/_ext/2003669979/wdrv_winc_authctx.o
 .text.WDRV_WINC_AuthCtxSetDefaults
                0x00000000       0x10 build/sam_d21_xpro_winc1500/production/_ext/2003669979/wdrv_winc_authctx.o
 .text.WDRV_WINC_AuthCtxSetOpen
                0x00000000       0x10 build/sam_d21_xpro_winc1500/production/_ext/2003669979/wdrv_winc_authctx.o
 .text.WDRV_WINC_AuthCtxSetWEP
                0x00000000       0x42 build/sam_d21_xpro_winc1500/production/_ext/2003669979/wdrv_winc_authctx.o
 .text.WDRV_WINC_AuthCtxSetWPA
                0x00000000       0x3c build/sam_d21_xpro_winc1500/production/_ext/2003669979/wdrv_winc_authctx.o
 .text.WDRV_WINC_AuthCtxSetWPAEnterpriseMSCHAPv2
                0x00000000       0xc0 build/sam_d21_xpro_winc1500/production/_ext/2003669979/wdrv_winc_authctx.o
 .text.WDRV_WINC_AuthCtxSetWPAEnterpriseTLS
                0x00000000      0x344 build/sam_d21_xpro_winc1500/production/_ext/2003669979/wdrv_winc_authctx.o
 .rodata.WDRV_WINC_AuthCtxSetWPAEnterpriseTLS
                0x00000000       0x24 build/sam_d21_xpro_winc1500/production/_ext/2003669979/wdrv_winc_authctx.o
 .debug_info    0x00000000     0x1e0f build/sam_d21_xpro_winc1500/production/_ext/2003669979/wdrv_winc_authctx.o
 .debug_abbrev  0x00000000      0x315 build/sam_d21_xpro_winc1500/production/_ext/2003669979/wdrv_winc_authctx.o
 .debug_loc     0x00000000      0xe58 build/sam_d21_xpro_winc1500/production/_ext/2003669979/wdrv_winc_authctx.o
 .debug_aranges
                0x00000000       0x50 build/sam_d21_xpro_winc1500/production/_ext/2003669979/wdrv_winc_authctx.o
 .debug_ranges  0x00000000       0xb8 build/sam_d21_xpro_winc1500/production/_ext/2003669979/wdrv_winc_authctx.o
 .debug_line    0x00000000      0x47a build/sam_d21_xpro_winc1500/production/_ext/2003669979/wdrv_winc_authctx.o
 .debug_str     0x00000000       0x77 build/sam_d21_xpro_winc1500/production/_ext/2003669979/wdrv_winc_authctx.o
 .comment       0x00000000       0x3d build/sam_d21_xpro_winc1500/production/_ext/2003669979/wdrv_winc_authctx.o
 .debug_frame   0x00000000       0xd0 build/sam_d21_xpro_winc1500/production/_ext/2003669979/wdrv_winc_authctx.o
 .ARM.attributes
                0x00000000       0x32 build/sam_d21_xpro_winc1500/production/_ext/2003669979/wdrv_winc_authctx.o
 .text          0x00000000        0x0 build/sam_d21_xpro_winc1500/production/_ext/2003669979/wdrv_winc_bssctx.o
 .data          0x00000000        0x0 build/sam_d21_xpro_winc1500/production/_ext/2003669979/wdrv_winc_bssctx.o
 .bss           0x00000000        0x0 build/sam_d21_xpro_winc1500/production/_ext/2003669979/wdrv_winc_bssctx.o
 .text.WDRV_WINC_BSSCtxIsValid
                0x00000000       0x54 build/sam_d21_xpro_winc1500/production/_ext/2003669979/wdrv_winc_bssctx.o
 .text.WDRV_WINC_BSSCtxSetDefaults
                0x00000000       0x2e build/sam_d21_xpro_winc1500/production/_ext/2003669979/wdrv_winc_bssctx.o
 .text.WDRV_WINC_BSSCtxSetSSID
                0x00000000       0x4e build/sam_d21_xpro_winc1500/production/_ext/2003669979/wdrv_winc_bssctx.o
 .text.WDRV_WINC_BSSCtxSetBSSID
                0x00000000       0x36 build/sam_d21_xpro_winc1500/production/_ext/2003669979/wdrv_winc_bssctx.o
 .text.WDRV_WINC_BSSCtxSetChannel
                0x00000000       0x34 build/sam_d21_xpro_winc1500/production/_ext/2003669979/wdrv_winc_bssctx.o
 .text.WDRV_WINC_BSSCtxSetSSIDVisibility
                0x00000000       0x26 build/sam_d21_xpro_winc1500/production/_ext/2003669979/wdrv_winc_bssctx.o
 .debug_info    0x00000000     0x1649 build/sam_d21_xpro_winc1500/production/_ext/2003669979/wdrv_winc_bssctx.o
 .debug_abbrev  0x00000000      0x277 build/sam_d21_xpro_winc1500/production/_ext/2003669979/wdrv_winc_bssctx.o
 .debug_loc     0x00000000      0x3e6 build/sam_d21_xpro_winc1500/production/_ext/2003669979/wdrv_winc_bssctx.o
 .debug_aranges
                0x00000000       0x48 build/sam_d21_xpro_winc1500/production/_ext/2003669979/wdrv_winc_bssctx.o
 .debug_ranges  0x00000000       0x38 build/sam_d21_xpro_winc1500/production/_ext/2003669979/wdrv_winc_bssctx.o
 .debug_line    0x00000000      0x3a0 build/sam_d21_xpro_winc1500/production/_ext/2003669979/wdrv_winc_bssctx.o
 .debug_str     0x00000000       0x16 build/sam_d21_xpro_winc1500/production/_ext/2003669979/wdrv_winc_bssctx.o
 .comment       0x00000000       0x3d build/sam_d21_xpro_winc1500/production/_ext/2003669979/wdrv_winc_bssctx.o
 .debug_frame   0x00000000       0xa8 build/sam_d21_xpro_winc1500/production/_ext/2003669979/wdrv_winc_bssctx.o
 .ARM.attributes
                0x00000000       0x32 build/sam_d21_xpro_winc1500/production/_ext/2003669979/wdrv_winc_bssctx.o
 .text          0x00000000        0x0 build/sam_d21_xpro_winc1500/production/_ext/2003669979/wdrv_winc_bssfind.o
 .data          0x00000000        0x0 build/sam_d21_xpro_winc1500/production/_ext/2003669979/wdrv_winc_bssfind.o
 .bss           0x00000000        0x0 build/sam_d21_xpro_winc1500/production/_ext/2003669979/wdrv_winc_bssfind.o
 .text.WDRV_WINC_BSSFindFirst
                0x00000000       0x8a build/sam_d21_xpro_winc1500/production/_ext/2003669979/wdrv_winc_bssfind.o
 .text.WDRV_WINC_BSSFindNext
                0x00000000       0x4c build/sam_d21_xpro_winc1500/production/_ext/2003669979/wdrv_winc_bssfind.o
 .text.WDRV_WINC_BSSFindReset
                0x00000000       0x40 build/sam_d21_xpro_winc1500/production/_ext/2003669979/wdrv_winc_bssfind.o
 .text.WDRV_WINC_BSSFindGetInfo
                0x00000000       0x38 build/sam_d21_xpro_winc1500/production/_ext/2003669979/wdrv_winc_bssfind.o
 .text.WDRV_WINC_BSSFindSetScanParameters
                0x00000000       0x6e build/sam_d21_xpro_winc1500/production/_ext/2003669979/wdrv_winc_bssfind.o
 .text.WDRV_WINC_BSSFindSetRSSIThreshold
                0x00000000       0x20 build/sam_d21_xpro_winc1500/production/_ext/2003669979/wdrv_winc_bssfind.o
 .text.WDRV_WINC_BSSFindSetEnabledChannels
                0x00000000       0x24 build/sam_d21_xpro_winc1500/production/_ext/2003669979/wdrv_winc_bssfind.o
 .text.WDRV_WINC_BSSFindGetNumBSSResults
                0x00000000       0x24 build/sam_d21_xpro_winc1500/production/_ext/2003669979/wdrv_winc_bssfind.o
 .text.WDRV_WINC_BSSFindInProgress
                0x00000000       0x12 build/sam_d21_xpro_winc1500/production/_ext/2003669979/wdrv_winc_bssfind.o
 .debug_info    0x00000000     0x2fcc build/sam_d21_xpro_winc1500/production/_ext/2003669979/wdrv_winc_bssfind.o
 .debug_abbrev  0x00000000      0x31e build/sam_d21_xpro_winc1500/production/_ext/2003669979/wdrv_winc_bssfind.o
 .debug_loc     0x00000000      0x861 build/sam_d21_xpro_winc1500/production/_ext/2003669979/wdrv_winc_bssfind.o
 .debug_aranges
                0x00000000       0x60 build/sam_d21_xpro_winc1500/production/_ext/2003669979/wdrv_winc_bssfind.o
 .debug_ranges  0x00000000       0x50 build/sam_d21_xpro_winc1500/production/_ext/2003669979/wdrv_winc_bssfind.o
 .debug_line    0x00000000      0x5e4 build/sam_d21_xpro_winc1500/production/_ext/2003669979/wdrv_winc_bssfind.o
 .debug_str     0x00000000      0x10e build/sam_d21_xpro_winc1500/production/_ext/2003669979/wdrv_winc_bssfind.o
 .comment       0x00000000       0x3d build/sam_d21_xpro_winc1500/production/_ext/2003669979/wdrv_winc_bssfind.o
 .debug_frame   0x00000000       0xec build/sam_d21_xpro_winc1500/production/_ext/2003669979/wdrv_winc_bssfind.o
 .ARM.attributes
                0x00000000       0x32 build/sam_d21_xpro_winc1500/production/_ext/2003669979/wdrv_winc_bssfind.o
 .text          0x00000000        0x0 build/sam_d21_xpro_winc1500/production/_ext/2003669979/wdrv_winc_custie.o
 .data          0x00000000        0x0 build/sam_d21_xpro_winc1500/production/_ext/2003669979/wdrv_winc_custie.o
 .bss           0x00000000        0x0 build/sam_d21_xpro_winc1500/production/_ext/2003669979/wdrv_winc_custie.o
 .text.WDRV_WINC_CustIEStoreCtxSetStorage
                0x00000000       0x32 build/sam_d21_xpro_winc1500/production/_ext/2003669979/wdrv_winc_custie.o
 .text.WDRV_WINC_CustIEStoreCtxAddIE
                0x00000000       0x5e build/sam_d21_xpro_winc1500/production/_ext/2003669979/wdrv_winc_custie.o
 .text.WDRV_WINC_CustIEStoreCtxRemoveIE
                0x00000000       0x84 build/sam_d21_xpro_winc1500/production/_ext/2003669979/wdrv_winc_custie.o
 .debug_info    0x00000000     0x14c4 build/sam_d21_xpro_winc1500/production/_ext/2003669979/wdrv_winc_custie.o
 .debug_abbrev  0x00000000      0x22e build/sam_d21_xpro_winc1500/production/_ext/2003669979/wdrv_winc_custie.o
 .debug_loc     0x00000000      0x3a5 build/sam_d21_xpro_winc1500/production/_ext/2003669979/wdrv_winc_custie.o
 .debug_aranges
                0x00000000       0x30 build/sam_d21_xpro_winc1500/production/_ext/2003669979/wdrv_winc_custie.o
 .debug_ranges  0x00000000       0x20 build/sam_d21_xpro_winc1500/production/_ext/2003669979/wdrv_winc_custie.o
 .debug_line    0x00000000      0x36b build/sam_d21_xpro_winc1500/production/_ext/2003669979/wdrv_winc_custie.o
 .debug_str     0x00000000       0x24 build/sam_d21_xpro_winc1500/production/_ext/2003669979/wdrv_winc_custie.o
 .comment       0x00000000       0x3d build/sam_d21_xpro_winc1500/production/_ext/2003669979/wdrv_winc_custie.o
 .debug_frame   0x00000000       0x68 build/sam_d21_xpro_winc1500/production/_ext/2003669979/wdrv_winc_custie.o
 .ARM.attributes
                0x00000000       0x32 build/sam_d21_xpro_winc1500/production/_ext/2003669979/wdrv_winc_custie.o
 .text          0x00000000        0x0 build/sam_d21_xpro_winc1500/production/_ext/2003669979/wdrv_winc_host_file.o
 .data          0x00000000        0x0 build/sam_d21_xpro_winc1500/production/_ext/2003669979/wdrv_winc_host_file.o
 .bss           0x00000000        0x0 build/sam_d21_xpro_winc1500/production/_ext/2003669979/wdrv_winc_host_file.o
 .text.WDRV_WINC_HostFileDownload
                0x00000000       0x56 build/sam_d21_xpro_winc1500/production/_ext/2003669979/wdrv_winc_host_file.o
 .text.WDRV_WINC_HostFileRead
                0x00000000       0x6c build/sam_d21_xpro_winc1500/production/_ext/2003669979/wdrv_winc_host_file.o
 .text.WDRV_WINC_HostFileErase
                0x00000000       0x48 build/sam_d21_xpro_winc1500/production/_ext/2003669979/wdrv_winc_host_file.o
 .text.WDRV_WINC_HostFileFindByID
                0x00000000       0x3e build/sam_d21_xpro_winc1500/production/_ext/2003669979/wdrv_winc_host_file.o
 .text.WDRV_WINC_HostFileGetSize
                0x00000000        0xc build/sam_d21_xpro_winc1500/production/_ext/2003669979/wdrv_winc_host_file.o
 .debug_info    0x00000000     0x2a44 build/sam_d21_xpro_winc1500/production/_ext/2003669979/wdrv_winc_host_file.o
 .debug_abbrev  0x00000000      0x2dc build/sam_d21_xpro_winc1500/production/_ext/2003669979/wdrv_winc_host_file.o
 .debug_loc     0x00000000      0x709 build/sam_d21_xpro_winc1500/production/_ext/2003669979/wdrv_winc_host_file.o
 .debug_aranges
                0x00000000       0x40 build/sam_d21_xpro_winc1500/production/_ext/2003669979/wdrv_winc_host_file.o
 .debug_ranges  0x00000000       0x30 build/sam_d21_xpro_winc1500/production/_ext/2003669979/wdrv_winc_host_file.o
 .debug_line    0x00000000      0x530 build/sam_d21_xpro_winc1500/production/_ext/2003669979/wdrv_winc_host_file.o
 .debug_str     0x00000000       0xd6 build/sam_d21_xpro_winc1500/production/_ext/2003669979/wdrv_winc_host_file.o
 .comment       0x00000000       0x3d build/sam_d21_xpro_winc1500/production/_ext/2003669979/wdrv_winc_host_file.o
 .debug_frame   0x00000000       0x90 build/sam_d21_xpro_winc1500/production/_ext/2003669979/wdrv_winc_host_file.o
 .ARM.attributes
                0x00000000       0x32 build/sam_d21_xpro_winc1500/production/_ext/2003669979/wdrv_winc_host_file.o
 .text          0x00000000        0x0 build/sam_d21_xpro_winc1500/production/_ext/2003669979/wdrv_winc_httpprovctx.o
 .data          0x00000000        0x0 build/sam_d21_xpro_winc1500/production/_ext/2003669979/wdrv_winc_httpprovctx.o
 .bss           0x00000000        0x0 build/sam_d21_xpro_winc1500/production/_ext/2003669979/wdrv_winc_httpprovctx.o
 .text.WDRV_WINC_HTTPProvCtxSetDefaults
                0x00000000       0x16 build/sam_d21_xpro_winc1500/production/_ext/2003669979/wdrv_winc_httpprovctx.o
 .text.WDRV_WINC_HTTPProvCtxSetDomainName
                0x00000000       0x38 build/sam_d21_xpro_winc1500/production/_ext/2003669979/wdrv_winc_httpprovctx.o
 .text.WDRV_WINC_HTTPProvCtxSetURLWildcard
                0x00000000        0xe build/sam_d21_xpro_winc1500/production/_ext/2003669979/wdrv_winc_httpprovctx.o
 .text.WDRV_WINC_HTTPProvCtxSetConnectCallback
                0x00000000        0xe build/sam_d21_xpro_winc1500/production/_ext/2003669979/wdrv_winc_httpprovctx.o
 .debug_info    0x00000000     0x18d2 build/sam_d21_xpro_winc1500/production/_ext/2003669979/wdrv_winc_httpprovctx.o
 .debug_abbrev  0x00000000      0x27c build/sam_d21_xpro_winc1500/production/_ext/2003669979/wdrv_winc_httpprovctx.o
 .debug_loc     0x00000000      0x193 build/sam_d21_xpro_winc1500/production/_ext/2003669979/wdrv_winc_httpprovctx.o
 .debug_aranges
                0x00000000       0x38 build/sam_d21_xpro_winc1500/production/_ext/2003669979/wdrv_winc_httpprovctx.o
 .debug_ranges  0x00000000       0x28 build/sam_d21_xpro_winc1500/production/_ext/2003669979/wdrv_winc_httpprovctx.o
 .debug_line    0x00000000      0x3b1 build/sam_d21_xpro_winc1500/production/_ext/2003669979/wdrv_winc_httpprovctx.o
 .debug_str     0x00000000       0x68 build/sam_d21_xpro_winc1500/production/_ext/2003669979/wdrv_winc_httpprovctx.o
 .comment       0x00000000       0x3d build/sam_d21_xpro_winc1500/production/_ext/2003669979/wdrv_winc_httpprovctx.o
 .debug_frame   0x00000000       0x5c build/sam_d21_xpro_winc1500/production/_ext/2003669979/wdrv_winc_httpprovctx.o
 .ARM.attributes
                0x00000000       0x32 build/sam_d21_xpro_winc1500/production/_ext/2003669979/wdrv_winc_httpprovctx.o
 .text          0x00000000        0x0 build/sam_d21_xpro_winc1500/production/_ext/2003669979/wdrv_winc_nvm.o
 .data          0x00000000        0x0 build/sam_d21_xpro_winc1500/production/_ext/2003669979/wdrv_winc_nvm.o
 .bss           0x00000000        0x0 build/sam_d21_xpro_winc1500/production/_ext/2003669979/wdrv_winc_nvm.o
 .text._WDRV_WINC_NVMCRC7
                0x00000000       0x42 build/sam_d21_xpro_winc1500/production/_ext/2003669979/wdrv_winc_nvm.o
 .text._WDRV_WINC_NVMFindSection
                0x00000000      0x100 build/sam_d21_xpro_winc1500/production/_ext/2003669979/wdrv_winc_nvm.o
 .text.WDRV_WINC_NVMEraseSector
                0x00000000       0x7c build/sam_d21_xpro_winc1500/production/_ext/2003669979/wdrv_winc_nvm.o
 .text.WDRV_WINC_NVMWrite
                0x00000000       0x82 build/sam_d21_xpro_winc1500/production/_ext/2003669979/wdrv_winc_nvm.o
 .text.WDRV_WINC_NVMRead
                0x00000000       0x7e build/sam_d21_xpro_winc1500/production/_ext/2003669979/wdrv_winc_nvm.o
 .rodata.flashLocationIDMap
                0x00000000       0x18 build/sam_d21_xpro_winc1500/production/_ext/2003669979/wdrv_winc_nvm.o
 .debug_info    0x00000000     0x34c7 build/sam_d21_xpro_winc1500/production/_ext/2003669979/wdrv_winc_nvm.o
 .debug_abbrev  0x00000000      0x366 build/sam_d21_xpro_winc1500/production/_ext/2003669979/wdrv_winc_nvm.o
 .debug_loc     0x00000000      0x7cb build/sam_d21_xpro_winc1500/production/_ext/2003669979/wdrv_winc_nvm.o
 .debug_aranges
                0x00000000       0x40 build/sam_d21_xpro_winc1500/production/_ext/2003669979/wdrv_winc_nvm.o
 .debug_ranges  0x00000000       0xa0 build/sam_d21_xpro_winc1500/production/_ext/2003669979/wdrv_winc_nvm.o
 .debug_line    0x00000000      0x617 build/sam_d21_xpro_winc1500/production/_ext/2003669979/wdrv_winc_nvm.o
 .debug_str     0x00000000      0x10a build/sam_d21_xpro_winc1500/production/_ext/2003669979/wdrv_winc_nvm.o
 .comment       0x00000000       0x3d build/sam_d21_xpro_winc1500/production/_ext/2003669979/wdrv_winc_nvm.o
 .debug_frame   0x00000000       0xb0 build/sam_d21_xpro_winc1500/production/_ext/2003669979/wdrv_winc_nvm.o
 .ARM.attributes
                0x00000000       0x32 build/sam_d21_xpro_winc1500/production/_ext/2003669979/wdrv_winc_nvm.o
 .text          0x00000000        0x0 build/sam_d21_xpro_winc1500/production/_ext/2003669979/wdrv_winc_powersave.o
 .data          0x00000000        0x0 build/sam_d21_xpro_winc1500/production/_ext/2003669979/wdrv_winc_powersave.o
 .bss           0x00000000        0x0 build/sam_d21_xpro_winc1500/production/_ext/2003669979/wdrv_winc_powersave.o
 .text.WDRV_WINC_PowerSaveSetMode
                0x00000000       0x30 build/sam_d21_xpro_winc1500/production/_ext/2003669979/wdrv_winc_powersave.o
 .text.WDRV_WINC_PowerSaveGetMode
                0x00000000       0x20 build/sam_d21_xpro_winc1500/production/_ext/2003669979/wdrv_winc_powersave.o
 .text.WDRV_WINC_PowerSaveSetBeaconInterval
                0x00000000       0x32 build/sam_d21_xpro_winc1500/production/_ext/2003669979/wdrv_winc_powersave.o
 .text.WDRV_WINC_PowerSaveManualSleep
                0x00000000       0x22 build/sam_d21_xpro_winc1500/production/_ext/2003669979/wdrv_winc_powersave.o
 .debug_info    0x00000000     0x2a82 build/sam_d21_xpro_winc1500/production/_ext/2003669979/wdrv_winc_powersave.o
 .debug_abbrev  0x00000000      0x268 build/sam_d21_xpro_winc1500/production/_ext/2003669979/wdrv_winc_powersave.o
 .debug_loc     0x00000000      0x3a4 build/sam_d21_xpro_winc1500/production/_ext/2003669979/wdrv_winc_powersave.o
 .debug_aranges
                0x00000000       0x38 build/sam_d21_xpro_winc1500/production/_ext/2003669979/wdrv_winc_powersave.o
 .debug_ranges  0x00000000       0x28 build/sam_d21_xpro_winc1500/production/_ext/2003669979/wdrv_winc_powersave.o
 .debug_line    0x00000000      0x520 build/sam_d21_xpro_winc1500/production/_ext/2003669979/wdrv_winc_powersave.o
 .debug_str     0x00000000       0xb7 build/sam_d21_xpro_winc1500/production/_ext/2003669979/wdrv_winc_powersave.o
 .comment       0x00000000       0x3d build/sam_d21_xpro_winc1500/production/_ext/2003669979/wdrv_winc_powersave.o
 .debug_frame   0x00000000       0x74 build/sam_d21_xpro_winc1500/production/_ext/2003669979/wdrv_winc_powersave.o
 .ARM.attributes
                0x00000000       0x32 build/sam_d21_xpro_winc1500/production/_ext/2003669979/wdrv_winc_powersave.o
 .text          0x00000000        0x0 build/sam_d21_xpro_winc1500/production/_ext/2003669979/wdrv_winc_socket.o
 .data          0x00000000        0x0 build/sam_d21_xpro_winc1500/production/_ext/2003669979/wdrv_winc_socket.o
 .bss           0x00000000        0x0 build/sam_d21_xpro_winc1500/production/_ext/2003669979/wdrv_winc_socket.o
 .text._WDRV_WINC_ICMPEchoResponseCallback
                0x00000000       0x26 build/sam_d21_xpro_winc1500/production/_ext/2003669979/wdrv_winc_socket.o
 .text.WDRV_WINC_IPAddressSet
                0x00000000       0x30 build/sam_d21_xpro_winc1500/production/_ext/2003669979/wdrv_winc_socket.o
 .text.WDRV_WINC_IPAddressGet
                0x00000000       0x22 build/sam_d21_xpro_winc1500/production/_ext/2003669979/wdrv_winc_socket.o
 .text.WDRV_WINC_IPDNSServerAddressSet
                0x00000000       0x28 build/sam_d21_xpro_winc1500/production/_ext/2003669979/wdrv_winc_socket.o
 .text.WDRV_WINC_IPDefaultGatewaySet
                0x00000000       0x28 build/sam_d21_xpro_winc1500/production/_ext/2003669979/wdrv_winc_socket.o
 .text.WDRV_WINC_IPUseDHCPSet
                0x00000000       0x2a build/sam_d21_xpro_winc1500/production/_ext/2003669979/wdrv_winc_socket.o
 .text.WDRV_WINC_IPUseDHCPGet
                0x00000000       0x1e build/sam_d21_xpro_winc1500/production/_ext/2003669979/wdrv_winc_socket.o
 .text.WDRV_WINC_IPDHCPServerConfigure
                0x00000000       0x24 build/sam_d21_xpro_winc1500/production/_ext/2003669979/wdrv_winc_socket.o
 .text.WDRV_WINC_IPLinkActive
                0x00000000        0xe build/sam_d21_xpro_winc1500/production/_ext/2003669979/wdrv_winc_socket.o
 .text.WDRV_WINC_ICMPEchoRequest
                0x00000000       0x40 build/sam_d21_xpro_winc1500/production/_ext/2003669979/wdrv_winc_socket.o
 .text.WDRV_WINC_OTAUpdateFromURL
                0x00000000       0x46 build/sam_d21_xpro_winc1500/production/_ext/2003669979/wdrv_winc_socket.o
 .text.WDRV_WINC_OTAUpdateAbort
                0x00000000       0x2e build/sam_d21_xpro_winc1500/production/_ext/2003669979/wdrv_winc_socket.o
 .text.WDRV_WINC_SwitchActiveFirmwareImage
                0x00000000       0x22 build/sam_d21_xpro_winc1500/production/_ext/2003669979/wdrv_winc_socket.o
 .text.WDRV_WINC_SocketRegisterEventCallback
                0x00000000       0x16 build/sam_d21_xpro_winc1500/production/_ext/2003669979/wdrv_winc_socket.o
 .text.WDRV_WINC_SocketRegisterResolverCallback
                0x00000000       0x16 build/sam_d21_xpro_winc1500/production/_ext/2003669979/wdrv_winc_socket.o
 .debug_info    0x00000000     0x2eb2 build/sam_d21_xpro_winc1500/production/_ext/2003669979/wdrv_winc_socket.o
 .debug_abbrev  0x00000000      0x327 build/sam_d21_xpro_winc1500/production/_ext/2003669979/wdrv_winc_socket.o
 .debug_loc     0x00000000      0xa04 build/sam_d21_xpro_winc1500/production/_ext/2003669979/wdrv_winc_socket.o
 .debug_aranges
                0x00000000       0x90 build/sam_d21_xpro_winc1500/production/_ext/2003669979/wdrv_winc_socket.o
 .debug_ranges  0x00000000       0x80 build/sam_d21_xpro_winc1500/production/_ext/2003669979/wdrv_winc_socket.o
 .debug_line    0x00000000      0x66a build/sam_d21_xpro_winc1500/production/_ext/2003669979/wdrv_winc_socket.o
 .debug_str     0x00000000      0x15d build/sam_d21_xpro_winc1500/production/_ext/2003669979/wdrv_winc_socket.o
 .comment       0x00000000       0x3d build/sam_d21_xpro_winc1500/production/_ext/2003669979/wdrv_winc_socket.o
 .debug_frame   0x00000000      0x160 build/sam_d21_xpro_winc1500/production/_ext/2003669979/wdrv_winc_socket.o
 .ARM.attributes
                0x00000000       0x32 build/sam_d21_xpro_winc1500/production/_ext/2003669979/wdrv_winc_socket.o
 .text          0x00000000        0x0 build/sam_d21_xpro_winc1500/production/_ext/2003669979/wdrv_winc_softap.o
 .data          0x00000000        0x0 build/sam_d21_xpro_winc1500/production/_ext/2003669979/wdrv_winc_softap.o
 .bss           0x00000000        0x0 build/sam_d21_xpro_winc1500/production/_ext/2003669979/wdrv_winc_softap.o
 .text.WDRV_WINC_APStart
                0x00000000      0x1e6 build/sam_d21_xpro_winc1500/production/_ext/2003669979/wdrv_winc_softap.o
 .text.WDRV_WINC_APStop
                0x00000000       0x52 build/sam_d21_xpro_winc1500/production/_ext/2003669979/wdrv_winc_softap.o
 .text.WDRV_WINC_APSetCustIE
                0x00000000       0x36 build/sam_d21_xpro_winc1500/production/_ext/2003669979/wdrv_winc_softap.o
 .debug_info    0x00000000     0x2d95 build/sam_d21_xpro_winc1500/production/_ext/2003669979/wdrv_winc_softap.o
 .debug_abbrev  0x00000000      0x303 build/sam_d21_xpro_winc1500/production/_ext/2003669979/wdrv_winc_softap.o
 .debug_loc     0x00000000      0x4ad build/sam_d21_xpro_winc1500/production/_ext/2003669979/wdrv_winc_softap.o
 .debug_aranges
                0x00000000       0x30 build/sam_d21_xpro_winc1500/production/_ext/2003669979/wdrv_winc_softap.o
 .debug_ranges  0x00000000       0x20 build/sam_d21_xpro_winc1500/production/_ext/2003669979/wdrv_winc_softap.o
 .debug_line    0x00000000      0x578 build/sam_d21_xpro_winc1500/production/_ext/2003669979/wdrv_winc_softap.o
 .debug_str     0x00000000      0x109 build/sam_d21_xpro_winc1500/production/_ext/2003669979/wdrv_winc_softap.o
 .comment       0x00000000       0x3d build/sam_d21_xpro_winc1500/production/_ext/2003669979/wdrv_winc_softap.o
 .debug_frame   0x00000000       0x6c build/sam_d21_xpro_winc1500/production/_ext/2003669979/wdrv_winc_softap.o
 .ARM.attributes
                0x00000000       0x32 build/sam_d21_xpro_winc1500/production/_ext/2003669979/wdrv_winc_softap.o
 .text          0x00000000        0x0 build/sam_d21_xpro_winc1500/production/_ext/2003669979/wdrv_winc_ssl.o
 .data          0x00000000        0x0 build/sam_d21_xpro_winc1500/production/_ext/2003669979/wdrv_winc_ssl.o
 .bss           0x00000000        0x0 build/sam_d21_xpro_winc1500/production/_ext/2003669979/wdrv_winc_ssl.o
 .text.WDRV_WINC_SSLCTXDefault
                0x00000000       0x10 build/sam_d21_xpro_winc1500/production/_ext/2003669979/wdrv_winc_ssl.o
 .text.WDRV_WINC_SSLCTXCipherSuitesSet
                0x00000000       0x70 build/sam_d21_xpro_winc1500/production/_ext/2003669979/wdrv_winc_ssl.o
 .text.WDRV_WINC_SSLCTXCipherSuitesGet
                0x00000000       0x54 build/sam_d21_xpro_winc1500/production/_ext/2003669979/wdrv_winc_ssl.o
 .text.WDRV_WINC_SSLActiveCipherSuitesSet
                0x00000000       0x36 build/sam_d21_xpro_winc1500/production/_ext/2003669979/wdrv_winc_ssl.o
 .text.WDRV_WINC_SSLECCHandShakeRsp
                0x00000000       0x4c build/sam_d21_xpro_winc1500/production/_ext/2003669979/wdrv_winc_ssl.o
 .text.WDRV_WINC_SSLRetrieveCert
                0x00000000        0xe build/sam_d21_xpro_winc1500/production/_ext/2003669979/wdrv_winc_ssl.o
 .text.WDRV_WINC_SSLRetrieveHash
                0x00000000        0xe build/sam_d21_xpro_winc1500/production/_ext/2003669979/wdrv_winc_ssl.o
 .text.WDRV_WINC_SSLStopRetrieveCert
                0x00000000        0xa build/sam_d21_xpro_winc1500/production/_ext/2003669979/wdrv_winc_ssl.o
 .rodata._cipherSuiteMap
                0x00000000       0x40 build/sam_d21_xpro_winc1500/production/_ext/2003669979/wdrv_winc_ssl.o
 .debug_info    0x00000000     0x32f9 build/sam_d21_xpro_winc1500/production/_ext/2003669979/wdrv_winc_ssl.o
 .debug_abbrev  0x00000000      0x32b build/sam_d21_xpro_winc1500/production/_ext/2003669979/wdrv_winc_ssl.o
 .debug_loc     0x00000000      0x570 build/sam_d21_xpro_winc1500/production/_ext/2003669979/wdrv_winc_ssl.o
 .debug_aranges
                0x00000000       0x58 build/sam_d21_xpro_winc1500/production/_ext/2003669979/wdrv_winc_ssl.o
 .debug_ranges  0x00000000       0x48 build/sam_d21_xpro_winc1500/production/_ext/2003669979/wdrv_winc_ssl.o
 .debug_line    0x00000000      0x57f build/sam_d21_xpro_winc1500/production/_ext/2003669979/wdrv_winc_ssl.o
 .debug_str     0x00000000      0x12b build/sam_d21_xpro_winc1500/production/_ext/2003669979/wdrv_winc_ssl.o
 .comment       0x00000000       0x3d build/sam_d21_xpro_winc1500/production/_ext/2003669979/wdrv_winc_ssl.o
 .debug_frame   0x00000000       0xe4 build/sam_d21_xpro_winc1500/production/_ext/2003669979/wdrv_winc_ssl.o
 .ARM.attributes
                0x00000000       0x32 build/sam_d21_xpro_winc1500/production/_ext/2003669979/wdrv_winc_ssl.o
 .text          0x00000000        0x0 build/sam_d21_xpro_winc1500/production/_ext/2003669979/wdrv_winc_sta.o
 .data          0x00000000        0x0 build/sam_d21_xpro_winc1500/production/_ext/2003669979/wdrv_winc_sta.o
 .bss           0x00000000        0x0 build/sam_d21_xpro_winc1500/production/_ext/2003669979/wdrv_winc_sta.o
 .text.WDRV_WINC_BSSConnect
                0x00000000      0x2a2 build/sam_d21_xpro_winc1500/production/_ext/2003669979/wdrv_winc_sta.o
 .text.WDRV_WINC_BSSReconnect
                0x00000000       0x3c build/sam_d21_xpro_winc1500/production/_ext/2003669979/wdrv_winc_sta.o
 .text.WDRV_WINC_BSSDisconnect
                0x00000000       0x36 build/sam_d21_xpro_winc1500/production/_ext/2003669979/wdrv_winc_sta.o
 .text.WDRV_WINC_BSSRoamingConfigure
                0x00000000       0x46 build/sam_d21_xpro_winc1500/production/_ext/2003669979/wdrv_winc_sta.o
 .debug_info    0x00000000     0x321d build/sam_d21_xpro_winc1500/production/_ext/2003669979/wdrv_winc_sta.o
 .debug_abbrev  0x00000000      0x332 build/sam_d21_xpro_winc1500/production/_ext/2003669979/wdrv_winc_sta.o
 .debug_loc     0x00000000      0x6e5 build/sam_d21_xpro_winc1500/production/_ext/2003669979/wdrv_winc_sta.o
 .debug_aranges
                0x00000000       0x38 build/sam_d21_xpro_winc1500/production/_ext/2003669979/wdrv_winc_sta.o
 .debug_ranges  0x00000000       0x70 build/sam_d21_xpro_winc1500/production/_ext/2003669979/wdrv_winc_sta.o
 .debug_line    0x00000000      0x5e1 build/sam_d21_xpro_winc1500/production/_ext/2003669979/wdrv_winc_sta.o
 .debug_str     0x00000000      0x1ec build/sam_d21_xpro_winc1500/production/_ext/2003669979/wdrv_winc_sta.o
 .comment       0x00000000       0x3d build/sam_d21_xpro_winc1500/production/_ext/2003669979/wdrv_winc_sta.o
 .debug_frame   0x00000000       0x84 build/sam_d21_xpro_winc1500/production/_ext/2003669979/wdrv_winc_sta.o
 .ARM.attributes
                0x00000000       0x32 build/sam_d21_xpro_winc1500/production/_ext/2003669979/wdrv_winc_sta.o
 .text          0x00000000        0x0 build/sam_d21_xpro_winc1500/production/_ext/2003669979/wdrv_winc_systime.o
 .data          0x00000000        0x0 build/sam_d21_xpro_winc1500/production/_ext/2003669979/wdrv_winc_systime.o
 .bss           0x00000000        0x0 build/sam_d21_xpro_winc1500/production/_ext/2003669979/wdrv_winc_systime.o
 .text.WDRV_WINC_LocalTimeToUTC
                0x00000000       0x44 build/sam_d21_xpro_winc1500/production/_ext/2003669979/wdrv_winc_systime.o
 .text.WDRV_WINC_UTCToLocalTime
                0x00000000       0x40 build/sam_d21_xpro_winc1500/production/_ext/2003669979/wdrv_winc_systime.o
 .text.WDRV_WINC_SystemTimeSNTPClientEnable
                0x00000000       0x56 build/sam_d21_xpro_winc1500/production/_ext/2003669979/wdrv_winc_systime.o
 .text.WDRV_WINC_SystemTimeSNTPClientDisable
                0x00000000       0x22 build/sam_d21_xpro_winc1500/production/_ext/2003669979/wdrv_winc_systime.o
 .text.WDRV_WINC_SystemTimeSetCurrent
                0x00000000       0x28 build/sam_d21_xpro_winc1500/production/_ext/2003669979/wdrv_winc_systime.o
 .text.WDRV_WINC_SystemTimeGetCurrent
                0x00000000       0x28 build/sam_d21_xpro_winc1500/production/_ext/2003669979/wdrv_winc_systime.o
 .debug_info    0x00000000     0x2d33 build/sam_d21_xpro_winc1500/production/_ext/2003669979/wdrv_winc_systime.o
 .debug_abbrev  0x00000000      0x2b0 build/sam_d21_xpro_winc1500/production/_ext/2003669979/wdrv_winc_systime.o
 .debug_loc     0x00000000      0x4e1 build/sam_d21_xpro_winc1500/production/_ext/2003669979/wdrv_winc_systime.o
 .debug_aranges
                0x00000000       0x48 build/sam_d21_xpro_winc1500/production/_ext/2003669979/wdrv_winc_systime.o
 .debug_ranges  0x00000000       0x38 build/sam_d21_xpro_winc1500/production/_ext/2003669979/wdrv_winc_systime.o
 .debug_line    0x00000000      0x576 build/sam_d21_xpro_winc1500/production/_ext/2003669979/wdrv_winc_systime.o
 .debug_str     0x00000000       0xc3 build/sam_d21_xpro_winc1500/production/_ext/2003669979/wdrv_winc_systime.o
 .comment       0x00000000       0x3d build/sam_d21_xpro_winc1500/production/_ext/2003669979/wdrv_winc_systime.o
 .debug_frame   0x00000000       0xa8 build/sam_d21_xpro_winc1500/production/_ext/2003669979/wdrv_winc_systime.o
 .ARM.attributes
                0x00000000       0x32 build/sam_d21_xpro_winc1500/production/_ext/2003669979/wdrv_winc_systime.o
 .text          0x00000000        0x0 build/sam_d21_xpro_winc1500/production/_ext/2003669979/wdrv_winc_wps.o
 .data          0x00000000        0x0 build/sam_d21_xpro_winc1500/production/_ext/2003669979/wdrv_winc_wps.o
 .bss           0x00000000        0x0 build/sam_d21_xpro_winc1500/production/_ext/2003669979/wdrv_winc_wps.o
 .text.WDRV_WINC_WPSEnrolleeDiscoveryStartPIN
                0x00000000       0xe0 build/sam_d21_xpro_winc1500/production/_ext/2003669979/wdrv_winc_wps.o
 .text.WDRV_WINC_WPSEnrolleeDiscoveryStartPBC
                0x00000000       0x2c build/sam_d21_xpro_winc1500/production/_ext/2003669979/wdrv_winc_wps.o
 .text.WDRV_WINC_WPSEnrolleeDiscoveryStop
                0x00000000       0x20 build/sam_d21_xpro_winc1500/production/_ext/2003669979/wdrv_winc_wps.o
 .rodata        0x00000000        0x8 build/sam_d21_xpro_winc1500/production/_ext/2003669979/wdrv_winc_wps.o
 .debug_info    0x00000000     0x299b build/sam_d21_xpro_winc1500/production/_ext/2003669979/wdrv_winc_wps.o
 .debug_abbrev  0x00000000      0x303 build/sam_d21_xpro_winc1500/production/_ext/2003669979/wdrv_winc_wps.o
 .debug_loc     0x00000000      0x2d4 build/sam_d21_xpro_winc1500/production/_ext/2003669979/wdrv_winc_wps.o
 .debug_aranges
                0x00000000       0x30 build/sam_d21_xpro_winc1500/production/_ext/2003669979/wdrv_winc_wps.o
 .debug_ranges  0x00000000       0x20 build/sam_d21_xpro_winc1500/production/_ext/2003669979/wdrv_winc_wps.o
 .debug_line    0x00000000      0x4fd build/sam_d21_xpro_winc1500/production/_ext/2003669979/wdrv_winc_wps.o
 .debug_str     0x00000000       0x9a build/sam_d21_xpro_winc1500/production/_ext/2003669979/wdrv_winc_wps.o
 .comment       0x00000000       0x3d build/sam_d21_xpro_winc1500/production/_ext/2003669979/wdrv_winc_wps.o
 .debug_frame   0x00000000       0x60 build/sam_d21_xpro_winc1500/production/_ext/2003669979/wdrv_winc_wps.o
 .ARM.attributes
                0x00000000       0x32 build/sam_d21_xpro_winc1500/production/_ext/2003669979/wdrv_winc_wps.o
 .text          0x00000000        0x0 build/sam_d21_xpro_winc1500/production/_ext/1912998524/plib_clock.o
 .data          0x00000000        0x0 build/sam_d21_xpro_winc1500/production/_ext/1912998524/plib_clock.o
 .bss           0x00000000        0x0 build/sam_d21_xpro_winc1500/production/_ext/1912998524/plib_clock.o
 .text          0x00000000        0x0 build/sam_d21_xpro_winc1500/production/_ext/1101428939/plib_eic.o
 .data          0x00000000        0x0 build/sam_d21_xpro_winc1500/production/_ext/1101428939/plib_eic.o
 .bss           0x00000000        0x0 build/sam_d21_xpro_winc1500/production/_ext/1101428939/plib_eic.o
 .text.EIC_InterruptEnable
                0x00000000       0x10 build/sam_d21_xpro_winc1500/production/_ext/1101428939/plib_eic.o
 .text.EIC_InterruptDisable
                0x00000000       0x10 build/sam_d21_xpro_winc1500/production/_ext/1101428939/plib_eic.o
 .text.EIC_CallbackRegister
                0x00000000       0x28 build/sam_d21_xpro_winc1500/production/_ext/1101428939/plib_eic.o
 .text          0x00000000        0x0 build/sam_d21_xpro_winc1500/production/_ext/1910849038/plib_evsys.o
 .data          0x00000000        0x0 build/sam_d21_xpro_winc1500/production/_ext/1910849038/plib_evsys.o
 .bss           0x00000000        0x0 build/sam_d21_xpro_winc1500/production/_ext/1910849038/plib_evsys.o
 .text          0x00000000        0x0 build/sam_d21_xpro_winc1500/production/_ext/215722156/plib_nvic.o
 .data          0x00000000        0x0 build/sam_d21_xpro_winc1500/production/_ext/215722156/plib_nvic.o
 .bss           0x00000000        0x0 build/sam_d21_xpro_winc1500/production/_ext/215722156/plib_nvic.o
 .text          0x00000000        0x0 build/sam_d21_xpro_winc1500/production/_ext/1311483782/plib_nvmctrl.o
 .data          0x00000000        0x0 build/sam_d21_xpro_winc1500/production/_ext/1311483782/plib_nvmctrl.o
 .bss           0x00000000        0x0 build/sam_d21_xpro_winc1500/production/_ext/1311483782/plib_nvmctrl.o
 .text.NVMCTRL_CacheInvalidate
                0x00000000       0x10 build/sam_d21_xpro_winc1500/production/_ext/1311483782/plib_nvmctrl.o
 .text.NVMCTRL_Read
                0x00000000       0x10 build/sam_d21_xpro_winc1500/production/_ext/1311483782/plib_nvmctrl.o
 .text.NVMCTRL_PageWrite
                0x00000000       0x34 build/sam_d21_xpro_winc1500/production/_ext/1311483782/plib_nvmctrl.o
 .text.NVMCTRL_RowErase
                0x00000000       0x20 build/sam_d21_xpro_winc1500/production/_ext/1311483782/plib_nvmctrl.o
 .text.NVMCTRL_ErrorGet
                0x00000000       0x18 build/sam_d21_xpro_winc1500/production/_ext/1311483782/plib_nvmctrl.o
 .text.NVMCTRL_IsBusy
                0x00000000       0x14 build/sam_d21_xpro_winc1500/production/_ext/1311483782/plib_nvmctrl.o
 .text.NVMCTRL_RegionLock
                0x00000000       0x20 build/sam_d21_xpro_winc1500/production/_ext/1311483782/plib_nvmctrl.o
 .text.NVMCTRL_RegionUnlock
                0x00000000       0x20 build/sam_d21_xpro_winc1500/production/_ext/1311483782/plib_nvmctrl.o
 .bss.status    0x00000000        0x4 build/sam_d21_xpro_winc1500/production/_ext/1311483782/plib_nvmctrl.o
 .text          0x00000000        0x0 build/sam_d21_xpro_winc1500/production/_ext/215775307/plib_port.o
 .data          0x00000000        0x0 build/sam_d21_xpro_winc1500/production/_ext/215775307/plib_port.o
 .bss           0x00000000        0x0 build/sam_d21_xpro_winc1500/production/_ext/215775307/plib_port.o
 .text.PORT_GroupRead
                0x00000000        0x4 build/sam_d21_xpro_winc1500/production/_ext/215775307/plib_port.o
 .text.PORT_GroupLatchRead
                0x00000000        0x4 build/sam_d21_xpro_winc1500/production/_ext/215775307/plib_port.o
 .text.PORT_GroupSet
                0x00000000        0x4 build/sam_d21_xpro_winc1500/production/_ext/215775307/plib_port.o
 .text.PORT_GroupClear
                0x00000000        0x4 build/sam_d21_xpro_winc1500/production/_ext/215775307/plib_port.o
 .text.PORT_GroupToggle
                0x00000000        0x4 build/sam_d21_xpro_winc1500/production/_ext/215775307/plib_port.o
 .text.PORT_GroupInputEnable
                0x00000000        0x4 build/sam_d21_xpro_winc1500/production/_ext/215775307/plib_port.o
 .text.PORT_GroupOutputEnable
                0x00000000        0x4 build/sam_d21_xpro_winc1500/production/_ext/215775307/plib_port.o
 .text          0x00000000        0x0 build/sam_d21_xpro_winc1500/production/_ext/1670897031/plib_sercom4_spi_master.o
 .data          0x00000000        0x0 build/sam_d21_xpro_winc1500/production/_ext/1670897031/plib_sercom4_spi_master.o
 .bss           0x00000000        0x0 build/sam_d21_xpro_winc1500/production/_ext/1670897031/plib_sercom4_spi_master.o
 .text.SERCOM4_SPI_Write
                0x00000000        0xc build/sam_d21_xpro_winc1500/production/_ext/1670897031/plib_sercom4_spi_master.o
 .text.SERCOM4_SPI_Read
                0x00000000       0x10 build/sam_d21_xpro_winc1500/production/_ext/1670897031/plib_sercom4_spi_master.o
 .text          0x00000000        0x0 build/sam_d21_xpro_winc1500/production/_ext/1242531425/plib_sercom5_usart.o
 .data          0x00000000        0x0 build/sam_d21_xpro_winc1500/production/_ext/1242531425/plib_sercom5_usart.o
 .bss           0x00000000        0x0 build/sam_d21_xpro_winc1500/production/_ext/1242531425/plib_sercom5_usart.o
 .text.SERCOM5_USART_FrequencyGet
                0x00000000        0x8 build/sam_d21_xpro_winc1500/production/_ext/1242531425/plib_sercom5_usart.o
 .text.SERCOM5_USART_TransmitterEnable
                0x00000000       0x18 build/sam_d21_xpro_winc1500/production/_ext/1242531425/plib_sercom5_usart.o
 .text.SERCOM5_USART_TransmitterDisable
                0x00000000       0x1c build/sam_d21_xpro_winc1500/production/_ext/1242531425/plib_sercom5_usart.o
 .text.SERCOM5_USART_ReceiverEnable
                0x00000000       0x18 build/sam_d21_xpro_winc1500/production/_ext/1242531425/plib_sercom5_usart.o
 .text.SERCOM5_USART_ReceiverDisable
                0x00000000       0x1c build/sam_d21_xpro_winc1500/production/_ext/1242531425/plib_sercom5_usart.o
 .text.SERCOM5_USART_ReadAbort
                0x00000000       0x2c build/sam_d21_xpro_winc1500/production/_ext/1242531425/plib_sercom5_usart.o
 .text          0x00000000        0x0 build/sam_d21_xpro_winc1500/production/_ext/1143908167/plib_tc3.o
 .data          0x00000000        0x0 build/sam_d21_xpro_winc1500/production/_ext/1143908167/plib_tc3.o
 .bss           0x00000000        0x0 build/sam_d21_xpro_winc1500/production/_ext/1143908167/plib_tc3.o
 .text.TC3_TimerCommandSet
                0x00000000       0x18 build/sam_d21_xpro_winc1500/production/_ext/1143908167/plib_tc3.o
 .text.TC3_Timer16bitCounterSet
                0x00000000       0x14 build/sam_d21_xpro_winc1500/production/_ext/1143908167/plib_tc3.o
 .text.TC3_Timer16bitPeriodGet
                0x00000000       0x20 build/sam_d21_xpro_winc1500/production/_ext/1143908167/plib_tc3.o
 .text          0x00000000        0x0 build/sam_d21_xpro_winc1500/production/_ext/1923882300/platform_sercom_data.o
 .data          0x00000000        0x0 build/sam_d21_xpro_winc1500/production/_ext/1923882300/platform_sercom_data.o
 .bss           0x00000000        0x0 build/sam_d21_xpro_winc1500/production/_ext/1923882300/platform_sercom_data.o
 .text          0x00000000        0x0 build/sam_d21_xpro_winc1500/production/_ext/1966573984/xc32_monitor.o
 .data          0x00000000        0x0 build/sam_d21_xpro_winc1500/production/_ext/1966573984/xc32_monitor.o
 .bss           0x00000000        0x0 build/sam_d21_xpro_winc1500/production/_ext/1966573984/xc32_monitor.o
 .text._mon_getc
                0x00000000        0x4 build/sam_d21_xpro_winc1500/production/_ext/1966573984/xc32_monitor.o
 .text._mon_putc
                0x00000000        0x2 build/sam_d21_xpro_winc1500/production/_ext/1966573984/xc32_monitor.o
 .debug_info    0x00000000      0x28b build/sam_d21_xpro_winc1500/production/_ext/1966573984/xc32_monitor.o
 .debug_abbrev  0x00000000       0x75 build/sam_d21_xpro_winc1500/production/_ext/1966573984/xc32_monitor.o
 .debug_loc     0x00000000       0x21 build/sam_d21_xpro_winc1500/production/_ext/1966573984/xc32_monitor.o
 .debug_aranges
                0x00000000       0x28 build/sam_d21_xpro_winc1500/production/_ext/1966573984/xc32_monitor.o
 .debug_ranges  0x00000000       0x18 build/sam_d21_xpro_winc1500/production/_ext/1966573984/xc32_monitor.o
 .debug_line    0x00000000       0x79 build/sam_d21_xpro_winc1500/production/_ext/1966573984/xc32_monitor.o
 .debug_str     0x00000000        0x0 build/sam_d21_xpro_winc1500/production/_ext/1966573984/xc32_monitor.o
 .comment       0x00000000       0x3d build/sam_d21_xpro_winc1500/production/_ext/1966573984/xc32_monitor.o
 .debug_frame   0x00000000       0x30 build/sam_d21_xpro_winc1500/production/_ext/1966573984/xc32_monitor.o
 .ARM.attributes
                0x00000000       0x32 build/sam_d21_xpro_winc1500/production/_ext/1966573984/xc32_monitor.o
 .text          0x00000000        0x0 build/sam_d21_xpro_winc1500/production/_ext/676678561/sys_dma.o
 .data          0x00000000        0x0 build/sam_d21_xpro_winc1500/production/_ext/676678561/sys_dma.o
 .bss           0x00000000        0x0 build/sam_d21_xpro_winc1500/production/_ext/676678561/sys_dma.o
 .text          0x00000000        0x0 build/sam_d21_xpro_winc1500/production/_ext/720072173/sys_int.o
 .data          0x00000000        0x0 build/sam_d21_xpro_winc1500/production/_ext/720072173/sys_int.o
 .bss           0x00000000        0x0 build/sam_d21_xpro_winc1500/production/_ext/720072173/sys_int.o
 .text.SYS_INT_Enable
                0x00000000        0x8 build/sam_d21_xpro_winc1500/production/_ext/720072173/sys_int.o
 .text          0x00000000        0x0 build/sam_d21_xpro_winc1500/production/_ext/1751631207/sys_time.o
 .data          0x00000000        0x0 build/sam_d21_xpro_winc1500/production/_ext/1751631207/sys_time.o
 .bss           0x00000000        0x0 build/sam_d21_xpro_winc1500/production/_ext/1751631207/sys_time.o
 .text.SYS_TIME_Deinitialize
                0x00000000       0x30 build/sam_d21_xpro_winc1500/production/_ext/1751631207/sys_time.o
 .text.SYS_TIME_Status
                0x00000000       0x18 build/sam_d21_xpro_winc1500/production/_ext/1751631207/sys_time.o
 .text.SYS_TIME_FrequencyGet
                0x00000000        0xc build/sam_d21_xpro_winc1500/production/_ext/1751631207/sys_time.o
 .text.SYS_TIME_Counter64Get
                0x00000000       0x50 build/sam_d21_xpro_winc1500/production/_ext/1751631207/sys_time.o
 .text.SYS_TIME_CounterGet
                0x00000000        0x8 build/sam_d21_xpro_winc1500/production/_ext/1751631207/sys_time.o
 .text.SYS_TIME_CounterSet
                0x00000000       0x20 build/sam_d21_xpro_winc1500/production/_ext/1751631207/sys_time.o
 .text.SYS_TIME_CountToUS
                0x00000000       0x20 build/sam_d21_xpro_winc1500/production/_ext/1751631207/sys_time.o
 .text.SYS_TIME_CountToMS
                0x00000000       0x20 build/sam_d21_xpro_winc1500/production/_ext/1751631207/sys_time.o
 .text.SYS_TIME_USToCount
                0x00000000       0x24 build/sam_d21_xpro_winc1500/production/_ext/1751631207/sys_time.o
 .text.SYS_TIME_MSToCount
                0x00000000       0x20 build/sam_d21_xpro_winc1500/production/_ext/1751631207/sys_time.o
 .text.SYS_TIME_TimerCreate
                0x00000000       0x20 build/sam_d21_xpro_winc1500/production/_ext/1751631207/sys_time.o
 .text.SYS_TIME_TimerReload
                0x00000000       0x9c build/sam_d21_xpro_winc1500/production/_ext/1751631207/sys_time.o
 .text.SYS_TIME_TimerStop
                0x00000000       0x3e build/sam_d21_xpro_winc1500/production/_ext/1751631207/sys_time.o
 .text.SYS_TIME_TimerCounterGet
                0x00000000       0x8c build/sam_d21_xpro_winc1500/production/_ext/1751631207/sys_time.o
 .text.SYS_TIME_DelayUS
                0x00000000       0x54 build/sam_d21_xpro_winc1500/production/_ext/1751631207/sys_time.o
 .text.SYS_TIME_CallbackRegisterUS
                0x00000000       0x5c build/sam_d21_xpro_winc1500/production/_ext/1751631207/sys_time.o
 .text.SYS_TIME_CallbackRegisterMS
                0x00000000       0x58 build/sam_d21_xpro_winc1500/production/_ext/1751631207/sys_time.o
 .text          0x00000000        0x0 build/sam_d21_xpro_winc1500/production/_ext/281389274/initialization.o
 .data          0x00000000        0x0 build/sam_d21_xpro_winc1500/production/_ext/281389274/initialization.o
 .bss           0x00000000        0x0 build/sam_d21_xpro_winc1500/production/_ext/281389274/initialization.o
 .text          0x00000000        0x0 build/sam_d21_xpro_winc1500/production/_ext/281389274/interrupts.o
 .data          0x00000000        0x0 build/sam_d21_xpro_winc1500/production/_ext/281389274/interrupts.o
 .bss           0x00000000        0x0 build/sam_d21_xpro_winc1500/production/_ext/281389274/interrupts.o
 .text          0x00000000        0x0 build/sam_d21_xpro_winc1500/production/_ext/281389274/exceptions.o
 .data          0x00000000        0x0 build/sam_d21_xpro_winc1500/production/_ext/281389274/exceptions.o
 .bss           0x00000000        0x0 build/sam_d21_xpro_winc1500/production/_ext/281389274/exceptions.o
 .text          0x00000000        0x0 build/sam_d21_xpro_winc1500/production/_ext/281389274/startup_xc32.o
 .data          0x00000000        0x0 build/sam_d21_xpro_winc1500/production/_ext/281389274/startup_xc32.o
 .bss           0x00000000        0x0 build/sam_d21_xpro_winc1500/production/_ext/281389274/startup_xc32.o
 .text          0x00000000        0x0 build/sam_d21_xpro_winc1500/production/_ext/281389274/libc_syscalls.o
 .data          0x00000000        0x0 build/sam_d21_xpro_winc1500/production/_ext/281389274/libc_syscalls.o
 .bss           0x00000000        0x0 build/sam_d21_xpro_winc1500/production/_ext/281389274/libc_syscalls.o
 .text._exit    0x00000000        0x2 build/sam_d21_xpro_winc1500/production/_ext/281389274/libc_syscalls.o
 .debug_info    0x00000000      0xe68 build/sam_d21_xpro_winc1500/production/_ext/281389274/libc_syscalls.o
 .debug_abbrev  0x00000000      0x1a1 build/sam_d21_xpro_winc1500/production/_ext/281389274/libc_syscalls.o
 .debug_aranges
                0x00000000       0x20 build/sam_d21_xpro_winc1500/production/_ext/281389274/libc_syscalls.o
 .debug_ranges  0x00000000       0x10 build/sam_d21_xpro_winc1500/production/_ext/281389274/libc_syscalls.o
 .debug_line    0x00000000      0x14b build/sam_d21_xpro_winc1500/production/_ext/281389274/libc_syscalls.o
 .debug_str     0x00000000        0xe build/sam_d21_xpro_winc1500/production/_ext/281389274/libc_syscalls.o
 .comment       0x00000000       0x3d build/sam_d21_xpro_winc1500/production/_ext/281389274/libc_syscalls.o
 .debug_frame   0x00000000       0x20 build/sam_d21_xpro_winc1500/production/_ext/281389274/libc_syscalls.o
 .ARM.attributes
                0x00000000       0x32 build/sam_d21_xpro_winc1500/production/_ext/281389274/libc_syscalls.o
 .text          0x00000000        0x0 build/sam_d21_xpro_winc1500/production/_ext/281389274/tasks.o
 .data          0x00000000        0x0 build/sam_d21_xpro_winc1500/production/_ext/281389274/tasks.o
 .bss           0x00000000        0x0 build/sam_d21_xpro_winc1500/production/_ext/281389274/tasks.o
 .text          0x00000000        0x0 build/sam_d21_xpro_winc1500/production/_ext/1756295213/platform_sercom.o
 .data          0x00000000        0x0 build/sam_d21_xpro_winc1500/production/_ext/1756295213/platform_sercom.o
 .bss           0x00000000        0x0 build/sam_d21_xpro_winc1500/production/_ext/1756295213/platform_sercom.o
 .text.SerialBridge_PlatformUARTReadGetByte
                0x00000000       0x24 build/sam_d21_xpro_winc1500/production/_ext/1756295213/platform_sercom.o
 .text          0x00000000        0x0 build/sam_d21_xpro_winc1500/production/_ext/1891040070/serial_bridge.o
 .data          0x00000000        0x0 build/sam_d21_xpro_winc1500/production/_ext/1891040070/serial_bridge.o
 .bss           0x00000000        0x0 build/sam_d21_xpro_winc1500/production/_ext/1891040070/serial_bridge.o
 .text          0x00000000        0x0 build/sam_d21_xpro_winc1500/production/_ext/1360937237/main.o
 .data          0x00000000        0x0 build/sam_d21_xpro_winc1500/production/_ext/1360937237/main.o
 .bss           0x00000000        0x0 build/sam_d21_xpro_winc1500/production/_ext/1360937237/main.o
 .text          0x00000000        0x0 build/sam_d21_xpro_winc1500/production/_ext/1360937237/app.o
 .data          0x00000000        0x0 build/sam_d21_xpro_winc1500/production/_ext/1360937237/app.o
 .bss           0x00000000        0x0 build/sam_d21_xpro_winc1500/production/_ext/1360937237/app.o
 .text          0x00000000        0x0 c:/program files/microchip/xc32/v2.41/bin/bin/../../lib/gcc/pic32c/6.2.1/../../../../pic32c/lib\libpic32c.a(data_init.o)
 .data          0x00000000        0x0 c:/program files/microchip/xc32/v2.41/bin/bin/../../lib/gcc/pic32c/6.2.1/../../../../pic32c/lib\libpic32c.a(data_init.o)
 .bss           0x00000000        0x0 c:/program files/microchip/xc32/v2.41/bin/bin/../../lib/gcc/pic32c/6.2.1/../../../../pic32c/lib\libpic32c.a(data_init.o)
 .data          0x00000000        0x0 c:/program files/microchip/xc32/v2.41/bin/bin/../../lib/gcc/pic32c/6.2.1\libgcc.a(_udivsi3.o)
 .bss           0x00000000        0x0 c:/program files/microchip/xc32/v2.41/bin/bin/../../lib/gcc/pic32c/6.2.1\libgcc.a(_udivsi3.o)
 .data          0x00000000        0x0 c:/program files/microchip/xc32/v2.41/bin/bin/../../lib/gcc/pic32c/6.2.1\libgcc.a(_divsi3.o)
 .bss           0x00000000        0x0 c:/program files/microchip/xc32/v2.41/bin/bin/../../lib/gcc/pic32c/6.2.1\libgcc.a(_divsi3.o)
 .data          0x00000000        0x0 c:/program files/microchip/xc32/v2.41/bin/bin/../../lib/gcc/pic32c/6.2.1\libgcc.a(_dvmd_tls.o)
 .bss           0x00000000        0x0 c:/program files/microchip/xc32/v2.41/bin/bin/../../lib/gcc/pic32c/6.2.1\libgcc.a(_dvmd_tls.o)
 .data          0x00000000        0x0 c:/program files/microchip/xc32/v2.41/bin/bin/../../lib/gcc/pic32c/6.2.1\libgcc.a(_aeabi_uldivmod.o)
 .bss           0x00000000        0x0 c:/program files/microchip/xc32/v2.41/bin/bin/../../lib/gcc/pic32c/6.2.1\libgcc.a(_aeabi_uldivmod.o)
 .data          0x00000000        0x0 c:/program files/microchip/xc32/v2.41/bin/bin/../../lib/gcc/pic32c/6.2.1\libgcc.a(_muldi3.o)
 .bss           0x00000000        0x0 c:/program files/microchip/xc32/v2.41/bin/bin/../../lib/gcc/pic32c/6.2.1\libgcc.a(_muldi3.o)
 .data          0x00000000        0x0 c:/program files/microchip/xc32/v2.41/bin/bin/../../lib/gcc/pic32c/6.2.1\libgcc.a(_udivmoddi4.o)
 .bss           0x00000000        0x0 c:/program files/microchip/xc32/v2.41/bin/bin/../../lib/gcc/pic32c/6.2.1\libgcc.a(_udivmoddi4.o)
 .ARM.extab     0x00000000        0x0 c:/program files/microchip/xc32/v2.41/bin/bin/../../lib/gcc/pic32c/6.2.1\libgcc.a(_udivmoddi4.o)
 .data          0x00000000        0x0 c:/program files/microchip/xc32/v2.41/bin/bin/../../lib/gcc/pic32c/6.2.1\libgcc.a(_lshrdi3.o)
 .bss           0x00000000        0x0 c:/program files/microchip/xc32/v2.41/bin/bin/../../lib/gcc/pic32c/6.2.1\libgcc.a(_lshrdi3.o)
 .data          0x00000000        0x0 c:/program files/microchip/xc32/v2.41/bin/bin/../../lib/gcc/pic32c/6.2.1\libgcc.a(_ashldi3.o)
 .bss           0x00000000        0x0 c:/program files/microchip/xc32/v2.41/bin/bin/../../lib/gcc/pic32c/6.2.1\libgcc.a(_ashldi3.o)
 .data          0x00000000        0x0 c:/program files/microchip/xc32/v2.41/bin/bin/../../lib/gcc/pic32c/6.2.1\libgcc.a(_clzdi2.o)
 .bss           0x00000000        0x0 c:/program files/microchip/xc32/v2.41/bin/bin/../../lib/gcc/pic32c/6.2.1\libgcc.a(_clzdi2.o)
 .data          0x00000000        0x0 c:/program files/microchip/xc32/v2.41/bin/bin/../../lib/gcc/pic32c/6.2.1\libgcc.a(_clzsi2.o)
 .bss           0x00000000        0x0 c:/program files/microchip/xc32/v2.41/bin/bin/../../lib/gcc/pic32c/6.2.1\libgcc.a(_clzsi2.o)
 .text          0x00000000        0x0 c:/program files/microchip/xc32/v2.41/bin/bin/../../lib/gcc/pic32c/6.2.1/../../../../pic32c/lib\libc_nano.a(lib_a-gmtime.o)
 .data          0x00000000        0x0 c:/program files/microchip/xc32/v2.41/bin/bin/../../lib/gcc/pic32c/6.2.1/../../../../pic32c/lib\libc_nano.a(lib_a-gmtime.o)
 .bss           0x00000000        0x0 c:/program files/microchip/xc32/v2.41/bin/bin/../../lib/gcc/pic32c/6.2.1/../../../../pic32c/lib\libc_nano.a(lib_a-gmtime.o)
 .text.gmtime   0x00000000       0x24 c:/program files/microchip/xc32/v2.41/bin/bin/../../lib/gcc/pic32c/6.2.1/../../../../pic32c/lib\libc_nano.a(lib_a-gmtime.o)
 .debug_info    0x00000000      0xedd c:/program files/microchip/xc32/v2.41/bin/bin/../../lib/gcc/pic32c/6.2.1/../../../../pic32c/lib\libc_nano.a(lib_a-gmtime.o)
 .debug_abbrev  0x00000000      0x1b0 c:/program files/microchip/xc32/v2.41/bin/bin/../../lib/gcc/pic32c/6.2.1/../../../../pic32c/lib\libc_nano.a(lib_a-gmtime.o)
 .debug_loc     0x00000000       0x5f c:/program files/microchip/xc32/v2.41/bin/bin/../../lib/gcc/pic32c/6.2.1/../../../../pic32c/lib\libc_nano.a(lib_a-gmtime.o)
 .debug_aranges
                0x00000000       0x20 c:/program files/microchip/xc32/v2.41/bin/bin/../../lib/gcc/pic32c/6.2.1/../../../../pic32c/lib\libc_nano.a(lib_a-gmtime.o)
 .debug_ranges  0x00000000       0x10 c:/program files/microchip/xc32/v2.41/bin/bin/../../lib/gcc/pic32c/6.2.1/../../../../pic32c/lib\libc_nano.a(lib_a-gmtime.o)
 .debug_line    0x00000000      0x21f c:/program files/microchip/xc32/v2.41/bin/bin/../../lib/gcc/pic32c/6.2.1/../../../../pic32c/lib\libc_nano.a(lib_a-gmtime.o)
 .debug_str     0x00000000       0x12 c:/program files/microchip/xc32/v2.41/bin/bin/../../lib/gcc/pic32c/6.2.1/../../../../pic32c/lib\libc_nano.a(lib_a-gmtime.o)
 .comment       0x00000000       0x3d c:/program files/microchip/xc32/v2.41/bin/bin/../../lib/gcc/pic32c/6.2.1/../../../../pic32c/lib\libc_nano.a(lib_a-gmtime.o)
 .debug_frame   0x00000000       0x2c c:/program files/microchip/xc32/v2.41/bin/bin/../../lib/gcc/pic32c/6.2.1/../../../../pic32c/lib\libc_nano.a(lib_a-gmtime.o)
 .ARM.attributes
                0x00000000       0x2c c:/program files/microchip/xc32/v2.41/bin/bin/../../lib/gcc/pic32c/6.2.1/../../../../pic32c/lib\libc_nano.a(lib_a-gmtime.o)
 .text          0x00000000        0x0 c:/program files/microchip/xc32/v2.41/bin/bin/../../lib/gcc/pic32c/6.2.1/../../../../pic32c/lib\libc_nano.a(lib_a-gmtime_r.o)
 .data          0x00000000        0x0 c:/program files/microchip/xc32/v2.41/bin/bin/../../lib/gcc/pic32c/6.2.1/../../../../pic32c/lib\libc_nano.a(lib_a-gmtime_r.o)
 .bss           0x00000000        0x0 c:/program files/microchip/xc32/v2.41/bin/bin/../../lib/gcc/pic32c/6.2.1/../../../../pic32c/lib\libc_nano.a(lib_a-gmtime_r.o)
 .text.gmtime_r
                0x00000000      0x17c c:/program files/microchip/xc32/v2.41/bin/bin/../../lib/gcc/pic32c/6.2.1/../../../../pic32c/lib\libc_nano.a(lib_a-gmtime_r.o)
 .debug_info    0x00000000      0xfd0 c:/program files/microchip/xc32/v2.41/bin/bin/../../lib/gcc/pic32c/6.2.1/../../../../pic32c/lib\libc_nano.a(lib_a-gmtime_r.o)
 .debug_abbrev  0x00000000      0x16c c:/program files/microchip/xc32/v2.41/bin/bin/../../lib/gcc/pic32c/6.2.1/../../../../pic32c/lib\libc_nano.a(lib_a-gmtime_r.o)
 .debug_loc     0x00000000      0x281 c:/program files/microchip/xc32/v2.41/bin/bin/../../lib/gcc/pic32c/6.2.1/../../../../pic32c/lib\libc_nano.a(lib_a-gmtime_r.o)
 .debug_aranges
                0x00000000       0x20 c:/program files/microchip/xc32/v2.41/bin/bin/../../lib/gcc/pic32c/6.2.1/../../../../pic32c/lib\libc_nano.a(lib_a-gmtime_r.o)
 .debug_ranges  0x00000000       0x10 c:/program files/microchip/xc32/v2.41/bin/bin/../../lib/gcc/pic32c/6.2.1/../../../../pic32c/lib\libc_nano.a(lib_a-gmtime_r.o)
 .debug_line    0x00000000      0x264 c:/program files/microchip/xc32/v2.41/bin/bin/../../lib/gcc/pic32c/6.2.1/../../../../pic32c/lib\libc_nano.a(lib_a-gmtime_r.o)
 .debug_str     0x00000000        0x9 c:/program files/microchip/xc32/v2.41/bin/bin/../../lib/gcc/pic32c/6.2.1/../../../../pic32c/lib\libc_nano.a(lib_a-gmtime_r.o)
 .comment       0x00000000       0x3d c:/program files/microchip/xc32/v2.41/bin/bin/../../lib/gcc/pic32c/6.2.1/../../../../pic32c/lib\libc_nano.a(lib_a-gmtime_r.o)
 .debug_frame   0x00000000       0x30 c:/program files/microchip/xc32/v2.41/bin/bin/../../lib/gcc/pic32c/6.2.1/../../../../pic32c/lib\libc_nano.a(lib_a-gmtime_r.o)
 .ARM.attributes
                0x00000000       0x2c c:/program files/microchip/xc32/v2.41/bin/bin/../../lib/gcc/pic32c/6.2.1/../../../../pic32c/lib\libc_nano.a(lib_a-gmtime_r.o)
 .text          0x00000000        0x0 c:/program files/microchip/xc32/v2.41/bin/bin/../../lib/gcc/pic32c/6.2.1/../../../../pic32c/lib\libc_nano.a(lib_a-impure.o)
 .data          0x00000000        0x0 c:/program files/microchip/xc32/v2.41/bin/bin/../../lib/gcc/pic32c/6.2.1/../../../../pic32c/lib\libc_nano.a(lib_a-impure.o)
 .bss           0x00000000        0x0 c:/program files/microchip/xc32/v2.41/bin/bin/../../lib/gcc/pic32c/6.2.1/../../../../pic32c/lib\libc_nano.a(lib_a-impure.o)
 .data._impure_ptr
                0x00000000        0x4 c:/program files/microchip/xc32/v2.41/bin/bin/../../lib/gcc/pic32c/6.2.1/../../../../pic32c/lib\libc_nano.a(lib_a-impure.o)
 .data.impure_data
                0x00000000       0x60 c:/program files/microchip/xc32/v2.41/bin/bin/../../lib/gcc/pic32c/6.2.1/../../../../pic32c/lib\libc_nano.a(lib_a-impure.o)
 .rodata._global_impure_ptr
                0x00000000        0x4 c:/program files/microchip/xc32/v2.41/bin/bin/../../lib/gcc/pic32c/6.2.1/../../../../pic32c/lib\libc_nano.a(lib_a-impure.o)
 .debug_info    0x00000000      0xd3c c:/program files/microchip/xc32/v2.41/bin/bin/../../lib/gcc/pic32c/6.2.1/../../../../pic32c/lib\libc_nano.a(lib_a-impure.o)
 .debug_abbrev  0x00000000      0x131 c:/program files/microchip/xc32/v2.41/bin/bin/../../lib/gcc/pic32c/6.2.1/../../../../pic32c/lib\libc_nano.a(lib_a-impure.o)
 .debug_aranges
                0x00000000       0x18 c:/program files/microchip/xc32/v2.41/bin/bin/../../lib/gcc/pic32c/6.2.1/../../../../pic32c/lib\libc_nano.a(lib_a-impure.o)
 .debug_line    0x00000000      0x17e c:/program files/microchip/xc32/v2.41/bin/bin/../../lib/gcc/pic32c/6.2.1/../../../../pic32c/lib\libc_nano.a(lib_a-impure.o)
 .debug_str     0x00000000        0x9 c:/program files/microchip/xc32/v2.41/bin/bin/../../lib/gcc/pic32c/6.2.1/../../../../pic32c/lib\libc_nano.a(lib_a-impure.o)
 .comment       0x00000000       0x3d c:/program files/microchip/xc32/v2.41/bin/bin/../../lib/gcc/pic32c/6.2.1/../../../../pic32c/lib\libc_nano.a(lib_a-impure.o)
 .ARM.attributes
                0x00000000       0x2c c:/program files/microchip/xc32/v2.41/bin/bin/../../lib/gcc/pic32c/6.2.1/../../../../pic32c/lib\libc_nano.a(lib_a-impure.o)
 .text          0x00000000        0x0 c:/program files/microchip/xc32/v2.41/bin/bin/../../lib/gcc/pic32c/6.2.1/../../../../pic32c/lib\libc_nano.a(lib_a-init.o)
 .data          0x00000000        0x0 c:/program files/microchip/xc32/v2.41/bin/bin/../../lib/gcc/pic32c/6.2.1/../../../../pic32c/lib\libc_nano.a(lib_a-init.o)
 .bss           0x00000000        0x0 c:/program files/microchip/xc32/v2.41/bin/bin/../../lib/gcc/pic32c/6.2.1/../../../../pic32c/lib\libc_nano.a(lib_a-init.o)
 .text          0x00000000        0x0 c:/program files/microchip/xc32/v2.41/bin/bin/../../lib/gcc/pic32c/6.2.1/../../../../pic32c/lib\libc_nano.a(lib_a-malloc.o)
 .data          0x00000000        0x0 c:/program files/microchip/xc32/v2.41/bin/bin/../../lib/gcc/pic32c/6.2.1/../../../../pic32c/lib\libc_nano.a(lib_a-malloc.o)
 .bss           0x00000000        0x0 c:/program files/microchip/xc32/v2.41/bin/bin/../../lib/gcc/pic32c/6.2.1/../../../../pic32c/lib\libc_nano.a(lib_a-malloc.o)
 .text.malloc   0x00000000       0x14 c:/program files/microchip/xc32/v2.41/bin/bin/../../lib/gcc/pic32c/6.2.1/../../../../pic32c/lib\libc_nano.a(lib_a-malloc.o)
 .text.free     0x00000000       0x14 c:/program files/microchip/xc32/v2.41/bin/bin/../../lib/gcc/pic32c/6.2.1/../../../../pic32c/lib\libc_nano.a(lib_a-malloc.o)
 .debug_info    0x00000000      0xddf c:/program files/microchip/xc32/v2.41/bin/bin/../../lib/gcc/pic32c/6.2.1/../../../../pic32c/lib\libc_nano.a(lib_a-malloc.o)
 .debug_abbrev  0x00000000      0x1b0 c:/program files/microchip/xc32/v2.41/bin/bin/../../lib/gcc/pic32c/6.2.1/../../../../pic32c/lib\libc_nano.a(lib_a-malloc.o)
 .debug_loc     0x00000000       0x98 c:/program files/microchip/xc32/v2.41/bin/bin/../../lib/gcc/pic32c/6.2.1/../../../../pic32c/lib\libc_nano.a(lib_a-malloc.o)
 .debug_aranges
                0x00000000       0x28 c:/program files/microchip/xc32/v2.41/bin/bin/../../lib/gcc/pic32c/6.2.1/../../../../pic32c/lib\libc_nano.a(lib_a-malloc.o)
 .debug_ranges  0x00000000       0x18 c:/program files/microchip/xc32/v2.41/bin/bin/../../lib/gcc/pic32c/6.2.1/../../../../pic32c/lib\libc_nano.a(lib_a-malloc.o)
 .debug_line    0x00000000      0x224 c:/program files/microchip/xc32/v2.41/bin/bin/../../lib/gcc/pic32c/6.2.1/../../../../pic32c/lib\libc_nano.a(lib_a-malloc.o)
 .debug_str     0x00000000       0x13 c:/program files/microchip/xc32/v2.41/bin/bin/../../lib/gcc/pic32c/6.2.1/../../../../pic32c/lib\libc_nano.a(lib_a-malloc.o)
 .comment       0x00000000       0x3d c:/program files/microchip/xc32/v2.41/bin/bin/../../lib/gcc/pic32c/6.2.1/../../../../pic32c/lib\libc_nano.a(lib_a-malloc.o)
 .debug_frame   0x00000000       0x40 c:/program files/microchip/xc32/v2.41/bin/bin/../../lib/gcc/pic32c/6.2.1/../../../../pic32c/lib\libc_nano.a(lib_a-malloc.o)
 .ARM.attributes
                0x00000000       0x2c c:/program files/microchip/xc32/v2.41/bin/bin/../../lib/gcc/pic32c/6.2.1/../../../../pic32c/lib\libc_nano.a(lib_a-malloc.o)
 .text          0x00000000        0x0 c:/program files/microchip/xc32/v2.41/bin/bin/../../lib/gcc/pic32c/6.2.1/../../../../pic32c/lib\libc_nano.a(lib_a-memcpy-stub.o)
 .data          0x00000000        0x0 c:/program files/microchip/xc32/v2.41/bin/bin/../../lib/gcc/pic32c/6.2.1/../../../../pic32c/lib\libc_nano.a(lib_a-memcpy-stub.o)
 .bss           0x00000000        0x0 c:/program files/microchip/xc32/v2.41/bin/bin/../../lib/gcc/pic32c/6.2.1/../../../../pic32c/lib\libc_nano.a(lib_a-memcpy-stub.o)
 .text          0x00000000        0x0 c:/program files/microchip/xc32/v2.41/bin/bin/../../lib/gcc/pic32c/6.2.1/../../../../pic32c/lib\libc_nano.a(lib_a-memset.o)
 .data          0x00000000        0x0 c:/program files/microchip/xc32/v2.41/bin/bin/../../lib/gcc/pic32c/6.2.1/../../../../pic32c/lib\libc_nano.a(lib_a-memset.o)
 .bss           0x00000000        0x0 c:/program files/microchip/xc32/v2.41/bin/bin/../../lib/gcc/pic32c/6.2.1/../../../../pic32c/lib\libc_nano.a(lib_a-memset.o)
 .text          0x00000000        0x0 c:/program files/microchip/xc32/v2.41/bin/bin/../../lib/gcc/pic32c/6.2.1/../../../../pic32c/lib\libc_nano.a(lib_a-mktime.o)
 .data          0x00000000        0x0 c:/program files/microchip/xc32/v2.41/bin/bin/../../lib/gcc/pic32c/6.2.1/../../../../pic32c/lib\libc_nano.a(lib_a-mktime.o)
 .bss           0x00000000        0x0 c:/program files/microchip/xc32/v2.41/bin/bin/../../lib/gcc/pic32c/6.2.1/../../../../pic32c/lib\libc_nano.a(lib_a-mktime.o)
 .text.validate_structure
                0x00000000      0x198 c:/program files/microchip/xc32/v2.41/bin/bin/../../lib/gcc/pic32c/6.2.1/../../../../pic32c/lib\libc_nano.a(lib_a-mktime.o)
 .text.mktime   0x00000000      0x2ec c:/program files/microchip/xc32/v2.41/bin/bin/../../lib/gcc/pic32c/6.2.1/../../../../pic32c/lib\libc_nano.a(lib_a-mktime.o)
 .rodata.DAYS_IN_MONTH
                0x00000000       0x30 c:/program files/microchip/xc32/v2.41/bin/bin/../../lib/gcc/pic32c/6.2.1/../../../../pic32c/lib\libc_nano.a(lib_a-mktime.o)
 .rodata._DAYS_BEFORE_MONTH
                0x00000000       0x30 c:/program files/microchip/xc32/v2.41/bin/bin/../../lib/gcc/pic32c/6.2.1/../../../../pic32c/lib\libc_nano.a(lib_a-mktime.o)
 .debug_info    0x00000000     0x124c c:/program files/microchip/xc32/v2.41/bin/bin/../../lib/gcc/pic32c/6.2.1/../../../../pic32c/lib\libc_nano.a(lib_a-mktime.o)
 .debug_abbrev  0x00000000      0x205 c:/program files/microchip/xc32/v2.41/bin/bin/../../lib/gcc/pic32c/6.2.1/../../../../pic32c/lib\libc_nano.a(lib_a-mktime.o)
 .debug_loc     0x00000000      0x67f c:/program files/microchip/xc32/v2.41/bin/bin/../../lib/gcc/pic32c/6.2.1/../../../../pic32c/lib\libc_nano.a(lib_a-mktime.o)
 .debug_aranges
                0x00000000       0x28 c:/program files/microchip/xc32/v2.41/bin/bin/../../lib/gcc/pic32c/6.2.1/../../../../pic32c/lib\libc_nano.a(lib_a-mktime.o)
 .debug_ranges  0x00000000       0x58 c:/program files/microchip/xc32/v2.41/bin/bin/../../lib/gcc/pic32c/6.2.1/../../../../pic32c/lib\libc_nano.a(lib_a-mktime.o)
 .debug_line    0x00000000      0x355 c:/program files/microchip/xc32/v2.41/bin/bin/../../lib/gcc/pic32c/6.2.1/../../../../pic32c/lib\libc_nano.a(lib_a-mktime.o)
 .debug_str     0x00000000       0x3e c:/program files/microchip/xc32/v2.41/bin/bin/../../lib/gcc/pic32c/6.2.1/../../../../pic32c/lib\libc_nano.a(lib_a-mktime.o)
 .comment       0x00000000       0x3d c:/program files/microchip/xc32/v2.41/bin/bin/../../lib/gcc/pic32c/6.2.1/../../../../pic32c/lib\libc_nano.a(lib_a-mktime.o)
 .debug_frame   0x00000000       0x54 c:/program files/microchip/xc32/v2.41/bin/bin/../../lib/gcc/pic32c/6.2.1/../../../../pic32c/lib\libc_nano.a(lib_a-mktime.o)
 .ARM.attributes
                0x00000000       0x2c c:/program files/microchip/xc32/v2.41/bin/bin/../../lib/gcc/pic32c/6.2.1/../../../../pic32c/lib\libc_nano.a(lib_a-mktime.o)
 .text          0x00000000        0x0 c:/program files/microchip/xc32/v2.41/bin/bin/../../lib/gcc/pic32c/6.2.1/../../../../pic32c/lib\libc_nano.a(lib_a-nano-freer.o)
 .data          0x00000000        0x0 c:/program files/microchip/xc32/v2.41/bin/bin/../../lib/gcc/pic32c/6.2.1/../../../../pic32c/lib\libc_nano.a(lib_a-nano-freer.o)
 .bss           0x00000000        0x0 c:/program files/microchip/xc32/v2.41/bin/bin/../../lib/gcc/pic32c/6.2.1/../../../../pic32c/lib\libc_nano.a(lib_a-nano-freer.o)
 .text._free_r  0x00000000       0x94 c:/program files/microchip/xc32/v2.41/bin/bin/../../lib/gcc/pic32c/6.2.1/../../../../pic32c/lib\libc_nano.a(lib_a-nano-freer.o)
 .debug_info    0x00000000     0x10ed c:/program files/microchip/xc32/v2.41/bin/bin/../../lib/gcc/pic32c/6.2.1/../../../../pic32c/lib\libc_nano.a(lib_a-nano-freer.o)
 .debug_abbrev  0x00000000      0x24f c:/program files/microchip/xc32/v2.41/bin/bin/../../lib/gcc/pic32c/6.2.1/../../../../pic32c/lib\libc_nano.a(lib_a-nano-freer.o)
 .debug_loc     0x00000000      0x108 c:/program files/microchip/xc32/v2.41/bin/bin/../../lib/gcc/pic32c/6.2.1/../../../../pic32c/lib\libc_nano.a(lib_a-nano-freer.o)
 .debug_aranges
                0x00000000       0x20 c:/program files/microchip/xc32/v2.41/bin/bin/../../lib/gcc/pic32c/6.2.1/../../../../pic32c/lib\libc_nano.a(lib_a-nano-freer.o)
 .debug_ranges  0x00000000       0x28 c:/program files/microchip/xc32/v2.41/bin/bin/../../lib/gcc/pic32c/6.2.1/../../../../pic32c/lib\libc_nano.a(lib_a-nano-freer.o)
 .debug_line    0x00000000      0x1d4 c:/program files/microchip/xc32/v2.41/bin/bin/../../lib/gcc/pic32c/6.2.1/../../../../pic32c/lib\libc_nano.a(lib_a-nano-freer.o)
 .debug_str     0x00000000       0x27 c:/program files/microchip/xc32/v2.41/bin/bin/../../lib/gcc/pic32c/6.2.1/../../../../pic32c/lib\libc_nano.a(lib_a-nano-freer.o)
 .comment       0x00000000       0x3d c:/program files/microchip/xc32/v2.41/bin/bin/../../lib/gcc/pic32c/6.2.1/../../../../pic32c/lib\libc_nano.a(lib_a-nano-freer.o)
 .debug_frame   0x00000000       0x2c c:/program files/microchip/xc32/v2.41/bin/bin/../../lib/gcc/pic32c/6.2.1/../../../../pic32c/lib\libc_nano.a(lib_a-nano-freer.o)
 .ARM.attributes
                0x00000000       0x2c c:/program files/microchip/xc32/v2.41/bin/bin/../../lib/gcc/pic32c/6.2.1/../../../../pic32c/lib\libc_nano.a(lib_a-nano-freer.o)
 .text          0x00000000        0x0 c:/program files/microchip/xc32/v2.41/bin/bin/../../lib/gcc/pic32c/6.2.1/../../../../pic32c/lib\libc_nano.a(lib_a-nano-mallocr.o)
 .data          0x00000000        0x0 c:/program files/microchip/xc32/v2.41/bin/bin/../../lib/gcc/pic32c/6.2.1/../../../../pic32c/lib\libc_nano.a(lib_a-nano-mallocr.o)
 .bss           0x00000000        0x0 c:/program files/microchip/xc32/v2.41/bin/bin/../../lib/gcc/pic32c/6.2.1/../../../../pic32c/lib\libc_nano.a(lib_a-nano-mallocr.o)
 .text._malloc_r
                0x00000000       0xbc c:/program files/microchip/xc32/v2.41/bin/bin/../../lib/gcc/pic32c/6.2.1/../../../../pic32c/lib\libc_nano.a(lib_a-nano-mallocr.o)
 .bss.__malloc_free_list
                0x00000000        0x4 c:/program files/microchip/xc32/v2.41/bin/bin/../../lib/gcc/pic32c/6.2.1/../../../../pic32c/lib\libc_nano.a(lib_a-nano-mallocr.o)
 .bss.__malloc_sbrk_start
                0x00000000        0x4 c:/program files/microchip/xc32/v2.41/bin/bin/../../lib/gcc/pic32c/6.2.1/../../../../pic32c/lib\libc_nano.a(lib_a-nano-mallocr.o)
 .debug_info    0x00000000     0x119a c:/program files/microchip/xc32/v2.41/bin/bin/../../lib/gcc/pic32c/6.2.1/../../../../pic32c/lib\libc_nano.a(lib_a-nano-mallocr.o)
 .debug_abbrev  0x00000000      0x286 c:/program files/microchip/xc32/v2.41/bin/bin/../../lib/gcc/pic32c/6.2.1/../../../../pic32c/lib\libc_nano.a(lib_a-nano-mallocr.o)
 .debug_loc     0x00000000      0x242 c:/program files/microchip/xc32/v2.41/bin/bin/../../lib/gcc/pic32c/6.2.1/../../../../pic32c/lib\libc_nano.a(lib_a-nano-mallocr.o)
 .debug_aranges
                0x00000000       0x20 c:/program files/microchip/xc32/v2.41/bin/bin/../../lib/gcc/pic32c/6.2.1/../../../../pic32c/lib\libc_nano.a(lib_a-nano-mallocr.o)
 .debug_ranges  0x00000000       0x60 c:/program files/microchip/xc32/v2.41/bin/bin/../../lib/gcc/pic32c/6.2.1/../../../../pic32c/lib\libc_nano.a(lib_a-nano-mallocr.o)
 .debug_line    0x00000000      0x259 c:/program files/microchip/xc32/v2.41/bin/bin/../../lib/gcc/pic32c/6.2.1/../../../../pic32c/lib\libc_nano.a(lib_a-nano-mallocr.o)
 .debug_str     0x00000000       0x31 c:/program files/microchip/xc32/v2.41/bin/bin/../../lib/gcc/pic32c/6.2.1/../../../../pic32c/lib\libc_nano.a(lib_a-nano-mallocr.o)
 .comment       0x00000000       0x3d c:/program files/microchip/xc32/v2.41/bin/bin/../../lib/gcc/pic32c/6.2.1/../../../../pic32c/lib\libc_nano.a(lib_a-nano-mallocr.o)
 .debug_frame   0x00000000       0x2c c:/program files/microchip/xc32/v2.41/bin/bin/../../lib/gcc/pic32c/6.2.1/../../../../pic32c/lib\libc_nano.a(lib_a-nano-mallocr.o)
 .ARM.attributes
                0x00000000       0x2c c:/program files/microchip/xc32/v2.41/bin/bin/../../lib/gcc/pic32c/6.2.1/../../../../pic32c/lib\libc_nano.a(lib_a-nano-mallocr.o)
 .text          0x00000000        0x0 c:/program files/microchip/xc32/v2.41/bin/bin/../../lib/gcc/pic32c/6.2.1/../../../../pic32c/lib\libc_nano.a(lib_a-sbrkr.o)
 .data          0x00000000        0x0 c:/program files/microchip/xc32/v2.41/bin/bin/../../lib/gcc/pic32c/6.2.1/../../../../pic32c/lib\libc_nano.a(lib_a-sbrkr.o)
 .bss           0x00000000        0x0 c:/program files/microchip/xc32/v2.41/bin/bin/../../lib/gcc/pic32c/6.2.1/../../../../pic32c/lib\libc_nano.a(lib_a-sbrkr.o)
 .text._sbrk_r  0x00000000       0x24 c:/program files/microchip/xc32/v2.41/bin/bin/../../lib/gcc/pic32c/6.2.1/../../../../pic32c/lib\libc_nano.a(lib_a-sbrkr.o)
 .debug_info    0x00000000      0xe2c c:/program files/microchip/xc32/v2.41/bin/bin/../../lib/gcc/pic32c/6.2.1/../../../../pic32c/lib\libc_nano.a(lib_a-sbrkr.o)
 .debug_abbrev  0x00000000      0x1a8 c:/program files/microchip/xc32/v2.41/bin/bin/../../lib/gcc/pic32c/6.2.1/../../../../pic32c/lib\libc_nano.a(lib_a-sbrkr.o)
 .debug_loc     0x00000000       0x6d c:/program files/microchip/xc32/v2.41/bin/bin/../../lib/gcc/pic32c/6.2.1/../../../../pic32c/lib\libc_nano.a(lib_a-sbrkr.o)
 .debug_aranges
                0x00000000       0x20 c:/program files/microchip/xc32/v2.41/bin/bin/../../lib/gcc/pic32c/6.2.1/../../../../pic32c/lib\libc_nano.a(lib_a-sbrkr.o)
 .debug_ranges  0x00000000       0x10 c:/program files/microchip/xc32/v2.41/bin/bin/../../lib/gcc/pic32c/6.2.1/../../../../pic32c/lib\libc_nano.a(lib_a-sbrkr.o)
 .debug_line    0x00000000      0x214 c:/program files/microchip/xc32/v2.41/bin/bin/../../lib/gcc/pic32c/6.2.1/../../../../pic32c/lib\libc_nano.a(lib_a-sbrkr.o)
 .debug_str     0x00000000        0x9 c:/program files/microchip/xc32/v2.41/bin/bin/../../lib/gcc/pic32c/6.2.1/../../../../pic32c/lib\libc_nano.a(lib_a-sbrkr.o)
 .comment       0x00000000       0x3d c:/program files/microchip/xc32/v2.41/bin/bin/../../lib/gcc/pic32c/6.2.1/../../../../pic32c/lib\libc_nano.a(lib_a-sbrkr.o)
 .debug_frame   0x00000000       0x2c c:/program files/microchip/xc32/v2.41/bin/bin/../../lib/gcc/pic32c/6.2.1/../../../../pic32c/lib\libc_nano.a(lib_a-sbrkr.o)
 .ARM.attributes
                0x00000000       0x2c c:/program files/microchip/xc32/v2.41/bin/bin/../../lib/gcc/pic32c/6.2.1/../../../../pic32c/lib\libc_nano.a(lib_a-sbrkr.o)
 .text          0x00000000        0x0 c:/program files/microchip/xc32/v2.41/bin/bin/../../lib/gcc/pic32c/6.2.1/../../../../pic32c/lib\libc_nano.a(_lib_a-sprintf.cdnopuxX.o)
 .data          0x00000000        0x0 c:/program files/microchip/xc32/v2.41/bin/bin/../../lib/gcc/pic32c/6.2.1/../../../../pic32c/lib\libc_nano.a(_lib_a-sprintf.cdnopuxX.o)
 .bss           0x00000000        0x0 c:/program files/microchip/xc32/v2.41/bin/bin/../../lib/gcc/pic32c/6.2.1/../../../../pic32c/lib\libc_nano.a(_lib_a-sprintf.cdnopuxX.o)
 .text._sprintf_cdnopuxX
                0x00000000       0x40 c:/program files/microchip/xc32/v2.41/bin/bin/../../lib/gcc/pic32c/6.2.1/../../../../pic32c/lib\libc_nano.a(_lib_a-sprintf.cdnopuxX.o)
 .debug_info    0x00000000      0xe2e c:/program files/microchip/xc32/v2.41/bin/bin/../../lib/gcc/pic32c/6.2.1/../../../../pic32c/lib\libc_nano.a(_lib_a-sprintf.cdnopuxX.o)
 .debug_abbrev  0x00000000      0x1a5 c:/program files/microchip/xc32/v2.41/bin/bin/../../lib/gcc/pic32c/6.2.1/../../../../pic32c/lib\libc_nano.a(_lib_a-sprintf.cdnopuxX.o)
 .debug_loc     0x00000000       0x73 c:/program files/microchip/xc32/v2.41/bin/bin/../../lib/gcc/pic32c/6.2.1/../../../../pic32c/lib\libc_nano.a(_lib_a-sprintf.cdnopuxX.o)
 .debug_aranges
                0x00000000       0x20 c:/program files/microchip/xc32/v2.41/bin/bin/../../lib/gcc/pic32c/6.2.1/../../../../pic32c/lib\libc_nano.a(_lib_a-sprintf.cdnopuxX.o)
 .debug_ranges  0x00000000       0x10 c:/program files/microchip/xc32/v2.41/bin/bin/../../lib/gcc/pic32c/6.2.1/../../../../pic32c/lib\libc_nano.a(_lib_a-sprintf.cdnopuxX.o)
 .debug_line    0x00000000      0x1d4 c:/program files/microchip/xc32/v2.41/bin/bin/../../lib/gcc/pic32c/6.2.1/../../../../pic32c/lib\libc_nano.a(_lib_a-sprintf.cdnopuxX.o)
 .debug_str     0x00000000       0x1c c:/program files/microchip/xc32/v2.41/bin/bin/../../lib/gcc/pic32c/6.2.1/../../../../pic32c/lib\libc_nano.a(_lib_a-sprintf.cdnopuxX.o)
 .comment       0x00000000       0x3d c:/program files/microchip/xc32/v2.41/bin/bin/../../lib/gcc/pic32c/6.2.1/../../../../pic32c/lib\libc_nano.a(_lib_a-sprintf.cdnopuxX.o)
 .debug_frame   0x00000000       0x30 c:/program files/microchip/xc32/v2.41/bin/bin/../../lib/gcc/pic32c/6.2.1/../../../../pic32c/lib\libc_nano.a(_lib_a-sprintf.cdnopuxX.o)
 .ARM.attributes
                0x00000000       0x2c c:/program files/microchip/xc32/v2.41/bin/bin/../../lib/gcc/pic32c/6.2.1/../../../../pic32c/lib\libc_nano.a(_lib_a-sprintf.cdnopuxX.o)
 .text          0x00000000        0x0 c:/program files/microchip/xc32/v2.41/bin/bin/../../lib/gcc/pic32c/6.2.1/../../../../pic32c/lib\libc_nano.a(lib_a-strchr.o)
 .data          0x00000000        0x0 c:/program files/microchip/xc32/v2.41/bin/bin/../../lib/gcc/pic32c/6.2.1/../../../../pic32c/lib\libc_nano.a(lib_a-strchr.o)
 .bss           0x00000000        0x0 c:/program files/microchip/xc32/v2.41/bin/bin/../../lib/gcc/pic32c/6.2.1/../../../../pic32c/lib\libc_nano.a(lib_a-strchr.o)
 .text.strchr   0x00000000       0x1c c:/program files/microchip/xc32/v2.41/bin/bin/../../lib/gcc/pic32c/6.2.1/../../../../pic32c/lib\libc_nano.a(lib_a-strchr.o)
 .debug_info    0x00000000      0xd7b c:/program files/microchip/xc32/v2.41/bin/bin/../../lib/gcc/pic32c/6.2.1/../../../../pic32c/lib\libc_nano.a(lib_a-strchr.o)
 .debug_abbrev  0x00000000      0x159 c:/program files/microchip/xc32/v2.41/bin/bin/../../lib/gcc/pic32c/6.2.1/../../../../pic32c/lib\libc_nano.a(lib_a-strchr.o)
 .debug_loc     0x00000000       0x9a c:/program files/microchip/xc32/v2.41/bin/bin/../../lib/gcc/pic32c/6.2.1/../../../../pic32c/lib\libc_nano.a(lib_a-strchr.o)
 .debug_aranges
                0x00000000       0x20 c:/program files/microchip/xc32/v2.41/bin/bin/../../lib/gcc/pic32c/6.2.1/../../../../pic32c/lib\libc_nano.a(lib_a-strchr.o)
 .debug_ranges  0x00000000       0x10 c:/program files/microchip/xc32/v2.41/bin/bin/../../lib/gcc/pic32c/6.2.1/../../../../pic32c/lib\libc_nano.a(lib_a-strchr.o)
 .debug_line    0x00000000      0x209 c:/program files/microchip/xc32/v2.41/bin/bin/../../lib/gcc/pic32c/6.2.1/../../../../pic32c/lib\libc_nano.a(lib_a-strchr.o)
 .debug_str     0x00000000        0x9 c:/program files/microchip/xc32/v2.41/bin/bin/../../lib/gcc/pic32c/6.2.1/../../../../pic32c/lib\libc_nano.a(lib_a-strchr.o)
 .comment       0x00000000       0x3d c:/program files/microchip/xc32/v2.41/bin/bin/../../lib/gcc/pic32c/6.2.1/../../../../pic32c/lib\libc_nano.a(lib_a-strchr.o)
 .debug_frame   0x00000000       0x20 c:/program files/microchip/xc32/v2.41/bin/bin/../../lib/gcc/pic32c/6.2.1/../../../../pic32c/lib\libc_nano.a(lib_a-strchr.o)
 .ARM.attributes
                0x00000000       0x2c c:/program files/microchip/xc32/v2.41/bin/bin/../../lib/gcc/pic32c/6.2.1/../../../../pic32c/lib\libc_nano.a(lib_a-strchr.o)
 .text          0x00000000        0xe c:/program files/microchip/xc32/v2.41/bin/bin/../../lib/gcc/pic32c/6.2.1/../../../../pic32c/lib\libc_nano.a(lib_a-strlen.o)
 .data          0x00000000        0x0 c:/program files/microchip/xc32/v2.41/bin/bin/../../lib/gcc/pic32c/6.2.1/../../../../pic32c/lib\libc_nano.a(lib_a-strlen.o)
 .bss           0x00000000        0x0 c:/program files/microchip/xc32/v2.41/bin/bin/../../lib/gcc/pic32c/6.2.1/../../../../pic32c/lib\libc_nano.a(lib_a-strlen.o)
 .debug_line    0x00000000       0xb1 c:/program files/microchip/xc32/v2.41/bin/bin/../../lib/gcc/pic32c/6.2.1/../../../../pic32c/lib\libc_nano.a(lib_a-strlen.o)
 .debug_info    0x00000000      0x117 c:/program files/microchip/xc32/v2.41/bin/bin/../../lib/gcc/pic32c/6.2.1/../../../../pic32c/lib\libc_nano.a(lib_a-strlen.o)
 .debug_abbrev  0x00000000       0x14 c:/program files/microchip/xc32/v2.41/bin/bin/../../lib/gcc/pic32c/6.2.1/../../../../pic32c/lib\libc_nano.a(lib_a-strlen.o)
 .debug_aranges
                0x00000000       0x20 c:/program files/microchip/xc32/v2.41/bin/bin/../../lib/gcc/pic32c/6.2.1/../../../../pic32c/lib\libc_nano.a(lib_a-strlen.o)
 .ARM.attributes
                0x00000000       0x1c c:/program files/microchip/xc32/v2.41/bin/bin/../../lib/gcc/pic32c/6.2.1/../../../../pic32c/lib\libc_nano.a(lib_a-strlen.o)
 .text          0x00000000        0x0 c:/program files/microchip/xc32/v2.41/bin/bin/../../lib/gcc/pic32c/6.2.1/../../../../pic32c/lib\libc_nano.a(lib_a-tzcalc_limits.o)
 .data          0x00000000        0x0 c:/program files/microchip/xc32/v2.41/bin/bin/../../lib/gcc/pic32c/6.2.1/../../../../pic32c/lib\libc_nano.a(lib_a-tzcalc_limits.o)
 .bss           0x00000000        0x0 c:/program files/microchip/xc32/v2.41/bin/bin/../../lib/gcc/pic32c/6.2.1/../../../../pic32c/lib\libc_nano.a(lib_a-tzcalc_limits.o)
 .text.__tzcalc_limits
                0x00000000      0x150 c:/program files/microchip/xc32/v2.41/bin/bin/../../lib/gcc/pic32c/6.2.1/../../../../pic32c/lib\libc_nano.a(lib_a-tzcalc_limits.o)
 .debug_info    0x00000000     0x1043 c:/program files/microchip/xc32/v2.41/bin/bin/../../lib/gcc/pic32c/6.2.1/../../../../pic32c/lib\libc_nano.a(lib_a-tzcalc_limits.o)
 .debug_abbrev  0x00000000      0x192 c:/program files/microchip/xc32/v2.41/bin/bin/../../lib/gcc/pic32c/6.2.1/../../../../pic32c/lib\libc_nano.a(lib_a-tzcalc_limits.o)
 .debug_loc     0x00000000      0x20d c:/program files/microchip/xc32/v2.41/bin/bin/../../lib/gcc/pic32c/6.2.1/../../../../pic32c/lib\libc_nano.a(lib_a-tzcalc_limits.o)
 .debug_aranges
                0x00000000       0x20 c:/program files/microchip/xc32/v2.41/bin/bin/../../lib/gcc/pic32c/6.2.1/../../../../pic32c/lib\libc_nano.a(lib_a-tzcalc_limits.o)
 .debug_ranges  0x00000000       0x38 c:/program files/microchip/xc32/v2.41/bin/bin/../../lib/gcc/pic32c/6.2.1/../../../../pic32c/lib\libc_nano.a(lib_a-tzcalc_limits.o)
 .debug_line    0x00000000      0x27e c:/program files/microchip/xc32/v2.41/bin/bin/../../lib/gcc/pic32c/6.2.1/../../../../pic32c/lib\libc_nano.a(lib_a-tzcalc_limits.o)
 .debug_str     0x00000000       0x15 c:/program files/microchip/xc32/v2.41/bin/bin/../../lib/gcc/pic32c/6.2.1/../../../../pic32c/lib\libc_nano.a(lib_a-tzcalc_limits.o)
 .comment       0x00000000       0x3d c:/program files/microchip/xc32/v2.41/bin/bin/../../lib/gcc/pic32c/6.2.1/../../../../pic32c/lib\libc_nano.a(lib_a-tzcalc_limits.o)
 .debug_frame   0x00000000       0x30 c:/program files/microchip/xc32/v2.41/bin/bin/../../lib/gcc/pic32c/6.2.1/../../../../pic32c/lib\libc_nano.a(lib_a-tzcalc_limits.o)
 .ARM.attributes
                0x00000000       0x2c c:/program files/microchip/xc32/v2.41/bin/bin/../../lib/gcc/pic32c/6.2.1/../../../../pic32c/lib\libc_nano.a(lib_a-tzcalc_limits.o)
 .text          0x00000000        0x0 c:/program files/microchip/xc32/v2.41/bin/bin/../../lib/gcc/pic32c/6.2.1/../../../../pic32c/lib\libc_nano.a(lib_a-tzset.o)
 .data          0x00000000        0x0 c:/program files/microchip/xc32/v2.41/bin/bin/../../lib/gcc/pic32c/6.2.1/../../../../pic32c/lib\libc_nano.a(lib_a-tzset.o)
 .bss           0x00000000        0x0 c:/program files/microchip/xc32/v2.41/bin/bin/../../lib/gcc/pic32c/6.2.1/../../../../pic32c/lib\libc_nano.a(lib_a-tzset.o)
 .text.tzset    0x00000000       0x10 c:/program files/microchip/xc32/v2.41/bin/bin/../../lib/gcc/pic32c/6.2.1/../../../../pic32c/lib\libc_nano.a(lib_a-tzset.o)
 .text._tzset_unlocked
                0x00000000        0x8 c:/program files/microchip/xc32/v2.41/bin/bin/../../lib/gcc/pic32c/6.2.1/../../../../pic32c/lib\libc_nano.a(lib_a-tzset.o)
 .debug_info    0x00000000      0xddf c:/program files/microchip/xc32/v2.41/bin/bin/../../lib/gcc/pic32c/6.2.1/../../../../pic32c/lib\libc_nano.a(lib_a-tzset.o)
 .debug_abbrev  0x00000000      0x176 c:/program files/microchip/xc32/v2.41/bin/bin/../../lib/gcc/pic32c/6.2.1/../../../../pic32c/lib\libc_nano.a(lib_a-tzset.o)
 .debug_loc     0x00000000       0x20 c:/program files/microchip/xc32/v2.41/bin/bin/../../lib/gcc/pic32c/6.2.1/../../../../pic32c/lib\libc_nano.a(lib_a-tzset.o)
 .debug_aranges
                0x00000000       0x20 c:/program files/microchip/xc32/v2.41/bin/bin/../../lib/gcc/pic32c/6.2.1/../../../../pic32c/lib\libc_nano.a(lib_a-tzset.o)
 .debug_ranges  0x00000000       0x10 c:/program files/microchip/xc32/v2.41/bin/bin/../../lib/gcc/pic32c/6.2.1/../../../../pic32c/lib\libc_nano.a(lib_a-tzset.o)
 .debug_line    0x00000000      0x20a c:/program files/microchip/xc32/v2.41/bin/bin/../../lib/gcc/pic32c/6.2.1/../../../../pic32c/lib\libc_nano.a(lib_a-tzset.o)
 .debug_str     0x00000000       0x1b c:/program files/microchip/xc32/v2.41/bin/bin/../../lib/gcc/pic32c/6.2.1/../../../../pic32c/lib\libc_nano.a(lib_a-tzset.o)
 .comment       0x00000000       0x3d c:/program files/microchip/xc32/v2.41/bin/bin/../../lib/gcc/pic32c/6.2.1/../../../../pic32c/lib\libc_nano.a(lib_a-tzset.o)
 .debug_frame   0x00000000       0x40 c:/program files/microchip/xc32/v2.41/bin/bin/../../lib/gcc/pic32c/6.2.1/../../../../pic32c/lib\libc_nano.a(lib_a-tzset.o)
 .ARM.attributes
                0x00000000       0x2c c:/program files/microchip/xc32/v2.41/bin/bin/../../lib/gcc/pic32c/6.2.1/../../../../pic32c/lib\libc_nano.a(lib_a-tzset.o)
 .text          0x00000000        0x0 c:/program files/microchip/xc32/v2.41/bin/bin/../../lib/gcc/pic32c/6.2.1/../../../../pic32c/lib\libc_nano.a(lib_a-tzset_r.o)
 .data          0x00000000        0x0 c:/program files/microchip/xc32/v2.41/bin/bin/../../lib/gcc/pic32c/6.2.1/../../../../pic32c/lib\libc_nano.a(lib_a-tzset_r.o)
 .bss           0x00000000        0x0 c:/program files/microchip/xc32/v2.41/bin/bin/../../lib/gcc/pic32c/6.2.1/../../../../pic32c/lib\libc_nano.a(lib_a-tzset_r.o)
 .text._tzset_unlocked_r
                0x00000000      0x304 c:/program files/microchip/xc32/v2.41/bin/bin/../../lib/gcc/pic32c/6.2.1/../../../../pic32c/lib\libc_nano.a(lib_a-tzset_r.o)
 .text._tzset_r
                0x00000000        0x8 c:/program files/microchip/xc32/v2.41/bin/bin/../../lib/gcc/pic32c/6.2.1/../../../../pic32c/lib\libc_nano.a(lib_a-tzset_r.o)
 .rodata        0x00000000       0x4e c:/program files/microchip/xc32/v2.41/bin/bin/../../lib/gcc/pic32c/6.2.1/../../../../pic32c/lib\libc_nano.a(lib_a-tzset_r.o)
 .bss.__tzname_dst
                0x00000000        0xb c:/program files/microchip/xc32/v2.41/bin/bin/../../lib/gcc/pic32c/6.2.1/../../../../pic32c/lib\libc_nano.a(lib_a-tzset_r.o)
 .bss.__tzname_std
                0x00000000        0xb c:/program files/microchip/xc32/v2.41/bin/bin/../../lib/gcc/pic32c/6.2.1/../../../../pic32c/lib\libc_nano.a(lib_a-tzset_r.o)
 .bss.prev_tzenv
                0x00000000        0x4 c:/program files/microchip/xc32/v2.41/bin/bin/../../lib/gcc/pic32c/6.2.1/../../../../pic32c/lib\libc_nano.a(lib_a-tzset_r.o)
 .debug_info    0x00000000     0x1373 c:/program files/microchip/xc32/v2.41/bin/bin/../../lib/gcc/pic32c/6.2.1/../../../../pic32c/lib\libc_nano.a(lib_a-tzset_r.o)
 .debug_abbrev  0x00000000      0x1fb c:/program files/microchip/xc32/v2.41/bin/bin/../../lib/gcc/pic32c/6.2.1/../../../../pic32c/lib\libc_nano.a(lib_a-tzset_r.o)
 .debug_loc     0x00000000      0x28c c:/program files/microchip/xc32/v2.41/bin/bin/../../lib/gcc/pic32c/6.2.1/../../../../pic32c/lib\libc_nano.a(lib_a-tzset_r.o)
 .debug_aranges
                0x00000000       0x28 c:/program files/microchip/xc32/v2.41/bin/bin/../../lib/gcc/pic32c/6.2.1/../../../../pic32c/lib\libc_nano.a(lib_a-tzset_r.o)
 .debug_ranges  0x00000000       0x18 c:/program files/microchip/xc32/v2.41/bin/bin/../../lib/gcc/pic32c/6.2.1/../../../../pic32c/lib\libc_nano.a(lib_a-tzset_r.o)
 .debug_line    0x00000000      0x2f1 c:/program files/microchip/xc32/v2.41/bin/bin/../../lib/gcc/pic32c/6.2.1/../../../../pic32c/lib\libc_nano.a(lib_a-tzset_r.o)
 .debug_str     0x00000000       0x43 c:/program files/microchip/xc32/v2.41/bin/bin/../../lib/gcc/pic32c/6.2.1/../../../../pic32c/lib\libc_nano.a(lib_a-tzset_r.o)
 .comment       0x00000000       0x3d c:/program files/microchip/xc32/v2.41/bin/bin/../../lib/gcc/pic32c/6.2.1/../../../../pic32c/lib\libc_nano.a(lib_a-tzset_r.o)
 .debug_frame   0x00000000       0x48 c:/program files/microchip/xc32/v2.41/bin/bin/../../lib/gcc/pic32c/6.2.1/../../../../pic32c/lib\libc_nano.a(lib_a-tzset_r.o)
 .ARM.attributes
                0x00000000       0x2c c:/program files/microchip/xc32/v2.41/bin/bin/../../lib/gcc/pic32c/6.2.1/../../../../pic32c/lib\libc_nano.a(lib_a-tzset_r.o)
 .text          0x00000000        0x0 c:/program files/microchip/xc32/v2.41/bin/bin/../../lib/gcc/pic32c/6.2.1/../../../../pic32c/lib\libc_nano.a(lib_a-tzvars.o)
 .data          0x00000000        0x0 c:/program files/microchip/xc32/v2.41/bin/bin/../../lib/gcc/pic32c/6.2.1/../../../../pic32c/lib\libc_nano.a(lib_a-tzvars.o)
 .bss           0x00000000        0x0 c:/program files/microchip/xc32/v2.41/bin/bin/../../lib/gcc/pic32c/6.2.1/../../../../pic32c/lib\libc_nano.a(lib_a-tzvars.o)
 .rodata        0x00000000        0x4 c:/program files/microchip/xc32/v2.41/bin/bin/../../lib/gcc/pic32c/6.2.1/../../../../pic32c/lib\libc_nano.a(lib_a-tzvars.o)
 .bss._daylight
                0x00000000        0x4 c:/program files/microchip/xc32/v2.41/bin/bin/../../lib/gcc/pic32c/6.2.1/../../../../pic32c/lib\libc_nano.a(lib_a-tzvars.o)
 .bss._timezone
                0x00000000        0x4 c:/program files/microchip/xc32/v2.41/bin/bin/../../lib/gcc/pic32c/6.2.1/../../../../pic32c/lib\libc_nano.a(lib_a-tzvars.o)
 .data._tzname  0x00000000        0x8 c:/program files/microchip/xc32/v2.41/bin/bin/../../lib/gcc/pic32c/6.2.1/../../../../pic32c/lib\libc_nano.a(lib_a-tzvars.o)
 .debug_info    0x00000000      0xddf c:/program files/microchip/xc32/v2.41/bin/bin/../../lib/gcc/pic32c/6.2.1/../../../../pic32c/lib\libc_nano.a(lib_a-tzvars.o)
 .debug_abbrev  0x00000000      0x135 c:/program files/microchip/xc32/v2.41/bin/bin/../../lib/gcc/pic32c/6.2.1/../../../../pic32c/lib\libc_nano.a(lib_a-tzvars.o)
 .debug_aranges
                0x00000000       0x18 c:/program files/microchip/xc32/v2.41/bin/bin/../../lib/gcc/pic32c/6.2.1/../../../../pic32c/lib\libc_nano.a(lib_a-tzvars.o)
 .debug_line    0x00000000      0x17e c:/program files/microchip/xc32/v2.41/bin/bin/../../lib/gcc/pic32c/6.2.1/../../../../pic32c/lib\libc_nano.a(lib_a-tzvars.o)
 .debug_str     0x00000000        0x9 c:/program files/microchip/xc32/v2.41/bin/bin/../../lib/gcc/pic32c/6.2.1/../../../../pic32c/lib\libc_nano.a(lib_a-tzvars.o)
 .comment       0x00000000       0x3d c:/program files/microchip/xc32/v2.41/bin/bin/../../lib/gcc/pic32c/6.2.1/../../../../pic32c/lib\libc_nano.a(lib_a-tzvars.o)
 .ARM.attributes
                0x00000000       0x2c c:/program files/microchip/xc32/v2.41/bin/bin/../../lib/gcc/pic32c/6.2.1/../../../../pic32c/lib\libc_nano.a(lib_a-tzvars.o)
 .text          0x00000000        0x0 c:/program files/microchip/xc32/v2.41/bin/bin/../../lib/gcc/pic32c/6.2.1/../../../../pic32c/lib\libc_nano.a(lib_a-div.o)
 .data          0x00000000        0x0 c:/program files/microchip/xc32/v2.41/bin/bin/../../lib/gcc/pic32c/6.2.1/../../../../pic32c/lib\libc_nano.a(lib_a-div.o)
 .bss           0x00000000        0x0 c:/program files/microchip/xc32/v2.41/bin/bin/../../lib/gcc/pic32c/6.2.1/../../../../pic32c/lib\libc_nano.a(lib_a-div.o)
 .text.div      0x00000000       0x38 c:/program files/microchip/xc32/v2.41/bin/bin/../../lib/gcc/pic32c/6.2.1/../../../../pic32c/lib\libc_nano.a(lib_a-div.o)
 .debug_info    0x00000000      0xda5 c:/program files/microchip/xc32/v2.41/bin/bin/../../lib/gcc/pic32c/6.2.1/../../../../pic32c/lib\libc_nano.a(lib_a-div.o)
 .debug_abbrev  0x00000000      0x168 c:/program files/microchip/xc32/v2.41/bin/bin/../../lib/gcc/pic32c/6.2.1/../../../../pic32c/lib\libc_nano.a(lib_a-div.o)
 .debug_loc     0x00000000      0x114 c:/program files/microchip/xc32/v2.41/bin/bin/../../lib/gcc/pic32c/6.2.1/../../../../pic32c/lib\libc_nano.a(lib_a-div.o)
 .debug_aranges
                0x00000000       0x20 c:/program files/microchip/xc32/v2.41/bin/bin/../../lib/gcc/pic32c/6.2.1/../../../../pic32c/lib\libc_nano.a(lib_a-div.o)
 .debug_ranges  0x00000000       0x10 c:/program files/microchip/xc32/v2.41/bin/bin/../../lib/gcc/pic32c/6.2.1/../../../../pic32c/lib\libc_nano.a(lib_a-div.o)
 .debug_line    0x00000000      0x212 c:/program files/microchip/xc32/v2.41/bin/bin/../../lib/gcc/pic32c/6.2.1/../../../../pic32c/lib\libc_nano.a(lib_a-div.o)
 .debug_str     0x00000000        0x9 c:/program files/microchip/xc32/v2.41/bin/bin/../../lib/gcc/pic32c/6.2.1/../../../../pic32c/lib\libc_nano.a(lib_a-div.o)
 .comment       0x00000000       0x3d c:/program files/microchip/xc32/v2.41/bin/bin/../../lib/gcc/pic32c/6.2.1/../../../../pic32c/lib\libc_nano.a(lib_a-div.o)
 .debug_frame   0x00000000       0x30 c:/program files/microchip/xc32/v2.41/bin/bin/../../lib/gcc/pic32c/6.2.1/../../../../pic32c/lib\libc_nano.a(lib_a-div.o)
 .ARM.attributes
                0x00000000       0x2c c:/program files/microchip/xc32/v2.41/bin/bin/../../lib/gcc/pic32c/6.2.1/../../../../pic32c/lib\libc_nano.a(lib_a-div.o)
 .text          0x00000000        0x0 c:/program files/microchip/xc32/v2.41/bin/bin/../../lib/gcc/pic32c/6.2.1/../../../../pic32c/lib\libc_nano.a(lib_a-getenv_r.o)
 .data          0x00000000        0x0 c:/program files/microchip/xc32/v2.41/bin/bin/../../lib/gcc/pic32c/6.2.1/../../../../pic32c/lib\libc_nano.a(lib_a-getenv_r.o)
 .bss           0x00000000        0x0 c:/program files/microchip/xc32/v2.41/bin/bin/../../lib/gcc/pic32c/6.2.1/../../../../pic32c/lib\libc_nano.a(lib_a-getenv_r.o)
 .text._findenv_r
                0x00000000       0x78 c:/program files/microchip/xc32/v2.41/bin/bin/../../lib/gcc/pic32c/6.2.1/../../../../pic32c/lib\libc_nano.a(lib_a-getenv_r.o)
 .text._getenv_r
                0x00000000        0xa c:/program files/microchip/xc32/v2.41/bin/bin/../../lib/gcc/pic32c/6.2.1/../../../../pic32c/lib\libc_nano.a(lib_a-getenv_r.o)
 .debug_info    0x00000000      0xed8 c:/program files/microchip/xc32/v2.41/bin/bin/../../lib/gcc/pic32c/6.2.1/../../../../pic32c/lib\libc_nano.a(lib_a-getenv_r.o)
 .debug_abbrev  0x00000000      0x1dd c:/program files/microchip/xc32/v2.41/bin/bin/../../lib/gcc/pic32c/6.2.1/../../../../pic32c/lib\libc_nano.a(lib_a-getenv_r.o)
 .debug_loc     0x00000000      0x18d c:/program files/microchip/xc32/v2.41/bin/bin/../../lib/gcc/pic32c/6.2.1/../../../../pic32c/lib\libc_nano.a(lib_a-getenv_r.o)
 .debug_aranges
                0x00000000       0x28 c:/program files/microchip/xc32/v2.41/bin/bin/../../lib/gcc/pic32c/6.2.1/../../../../pic32c/lib\libc_nano.a(lib_a-getenv_r.o)
 .debug_ranges  0x00000000       0x18 c:/program files/microchip/xc32/v2.41/bin/bin/../../lib/gcc/pic32c/6.2.1/../../../../pic32c/lib\libc_nano.a(lib_a-getenv_r.o)
 .debug_line    0x00000000      0x24b c:/program files/microchip/xc32/v2.41/bin/bin/../../lib/gcc/pic32c/6.2.1/../../../../pic32c/lib\libc_nano.a(lib_a-getenv_r.o)
 .debug_str     0x00000000       0x2b c:/program files/microchip/xc32/v2.41/bin/bin/../../lib/gcc/pic32c/6.2.1/../../../../pic32c/lib\libc_nano.a(lib_a-getenv_r.o)
 .comment       0x00000000       0x3d c:/program files/microchip/xc32/v2.41/bin/bin/../../lib/gcc/pic32c/6.2.1/../../../../pic32c/lib\libc_nano.a(lib_a-getenv_r.o)
 .debug_frame   0x00000000       0x4c c:/program files/microchip/xc32/v2.41/bin/bin/../../lib/gcc/pic32c/6.2.1/../../../../pic32c/lib\libc_nano.a(lib_a-getenv_r.o)
 .ARM.attributes
                0x00000000       0x2c c:/program files/microchip/xc32/v2.41/bin/bin/../../lib/gcc/pic32c/6.2.1/../../../../pic32c/lib\libc_nano.a(lib_a-getenv_r.o)
 .text          0x00000000        0x0 c:/program files/microchip/xc32/v2.41/bin/bin/../../lib/gcc/pic32c/6.2.1/../../../../pic32c/lib\libc_nano.a(lib_a-gettzinfo.o)
 .data          0x00000000        0x0 c:/program files/microchip/xc32/v2.41/bin/bin/../../lib/gcc/pic32c/6.2.1/../../../../pic32c/lib\libc_nano.a(lib_a-gettzinfo.o)
 .bss           0x00000000        0x0 c:/program files/microchip/xc32/v2.41/bin/bin/../../lib/gcc/pic32c/6.2.1/../../../../pic32c/lib\libc_nano.a(lib_a-gettzinfo.o)
 .text.__gettzinfo
                0x00000000        0x8 c:/program files/microchip/xc32/v2.41/bin/bin/../../lib/gcc/pic32c/6.2.1/../../../../pic32c/lib\libc_nano.a(lib_a-gettzinfo.o)
 .data.tzinfo   0x00000000       0x40 c:/program files/microchip/xc32/v2.41/bin/bin/../../lib/gcc/pic32c/6.2.1/../../../../pic32c/lib\libc_nano.a(lib_a-gettzinfo.o)
 .debug_info    0x00000000      0xf54 c:/program files/microchip/xc32/v2.41/bin/bin/../../lib/gcc/pic32c/6.2.1/../../../../pic32c/lib\libc_nano.a(lib_a-gettzinfo.o)
 .debug_abbrev  0x00000000      0x15b c:/program files/microchip/xc32/v2.41/bin/bin/../../lib/gcc/pic32c/6.2.1/../../../../pic32c/lib\libc_nano.a(lib_a-gettzinfo.o)
 .debug_aranges
                0x00000000       0x20 c:/program files/microchip/xc32/v2.41/bin/bin/../../lib/gcc/pic32c/6.2.1/../../../../pic32c/lib\libc_nano.a(lib_a-gettzinfo.o)
 .debug_ranges  0x00000000       0x10 c:/program files/microchip/xc32/v2.41/bin/bin/../../lib/gcc/pic32c/6.2.1/../../../../pic32c/lib\libc_nano.a(lib_a-gettzinfo.o)
 .debug_line    0x00000000      0x218 c:/program files/microchip/xc32/v2.41/bin/bin/../../lib/gcc/pic32c/6.2.1/../../../../pic32c/lib\libc_nano.a(lib_a-gettzinfo.o)
 .debug_str     0x00000000        0x9 c:/program files/microchip/xc32/v2.41/bin/bin/../../lib/gcc/pic32c/6.2.1/../../../../pic32c/lib\libc_nano.a(lib_a-gettzinfo.o)
 .comment       0x00000000       0x3d c:/program files/microchip/xc32/v2.41/bin/bin/../../lib/gcc/pic32c/6.2.1/../../../../pic32c/lib\libc_nano.a(lib_a-gettzinfo.o)
 .debug_frame   0x00000000       0x20 c:/program files/microchip/xc32/v2.41/bin/bin/../../lib/gcc/pic32c/6.2.1/../../../../pic32c/lib\libc_nano.a(lib_a-gettzinfo.o)
 .ARM.attributes
                0x00000000       0x2c c:/program files/microchip/xc32/v2.41/bin/bin/../../lib/gcc/pic32c/6.2.1/../../../../pic32c/lib\libc_nano.a(lib_a-gettzinfo.o)
 .text          0x00000000        0x0 c:/program files/microchip/xc32/v2.41/bin/bin/../../lib/gcc/pic32c/6.2.1/../../../../pic32c/lib\libc_nano.a(lib_a-mlock.o)
 .data          0x00000000        0x0 c:/program files/microchip/xc32/v2.41/bin/bin/../../lib/gcc/pic32c/6.2.1/../../../../pic32c/lib\libc_nano.a(lib_a-mlock.o)
 .bss           0x00000000        0x0 c:/program files/microchip/xc32/v2.41/bin/bin/../../lib/gcc/pic32c/6.2.1/../../../../pic32c/lib\libc_nano.a(lib_a-mlock.o)
 .text.__malloc_lock
                0x00000000        0x2 c:/program files/microchip/xc32/v2.41/bin/bin/../../lib/gcc/pic32c/6.2.1/../../../../pic32c/lib\libc_nano.a(lib_a-mlock.o)
 .text.__malloc_unlock
                0x00000000        0x2 c:/program files/microchip/xc32/v2.41/bin/bin/../../lib/gcc/pic32c/6.2.1/../../../../pic32c/lib\libc_nano.a(lib_a-mlock.o)
 .debug_info    0x00000000      0xd79 c:/program files/microchip/xc32/v2.41/bin/bin/../../lib/gcc/pic32c/6.2.1/../../../../pic32c/lib\libc_nano.a(lib_a-mlock.o)
 .debug_abbrev  0x00000000      0x165 c:/program files/microchip/xc32/v2.41/bin/bin/../../lib/gcc/pic32c/6.2.1/../../../../pic32c/lib\libc_nano.a(lib_a-mlock.o)
 .debug_aranges
                0x00000000       0x20 c:/program files/microchip/xc32/v2.41/bin/bin/../../lib/gcc/pic32c/6.2.1/../../../../pic32c/lib\libc_nano.a(lib_a-mlock.o)
 .debug_ranges  0x00000000       0x10 c:/program files/microchip/xc32/v2.41/bin/bin/../../lib/gcc/pic32c/6.2.1/../../../../pic32c/lib\libc_nano.a(lib_a-mlock.o)
 .debug_line    0x00000000      0x18e c:/program files/microchip/xc32/v2.41/bin/bin/../../lib/gcc/pic32c/6.2.1/../../../../pic32c/lib\libc_nano.a(lib_a-mlock.o)
 .debug_str     0x00000000        0x9 c:/program files/microchip/xc32/v2.41/bin/bin/../../lib/gcc/pic32c/6.2.1/../../../../pic32c/lib\libc_nano.a(lib_a-mlock.o)
 .comment       0x00000000       0x3d c:/program files/microchip/xc32/v2.41/bin/bin/../../lib/gcc/pic32c/6.2.1/../../../../pic32c/lib\libc_nano.a(lib_a-mlock.o)
 .debug_frame   0x00000000       0x30 c:/program files/microchip/xc32/v2.41/bin/bin/../../lib/gcc/pic32c/6.2.1/../../../../pic32c/lib\libc_nano.a(lib_a-mlock.o)
 .ARM.attributes
                0x00000000       0x2c c:/program files/microchip/xc32/v2.41/bin/bin/../../lib/gcc/pic32c/6.2.1/../../../../pic32c/lib\libc_nano.a(lib_a-mlock.o)
 .text          0x00000000        0x0 c:/program files/microchip/xc32/v2.41/bin/bin/../../lib/gcc/pic32c/6.2.1/../../../../pic32c/lib\libc_nano.a(lib_a-month_lengths.o)
 .data          0x00000000        0x0 c:/program files/microchip/xc32/v2.41/bin/bin/../../lib/gcc/pic32c/6.2.1/../../../../pic32c/lib\libc_nano.a(lib_a-month_lengths.o)
 .bss           0x00000000        0x0 c:/program files/microchip/xc32/v2.41/bin/bin/../../lib/gcc/pic32c/6.2.1/../../../../pic32c/lib\libc_nano.a(lib_a-month_lengths.o)
 .rodata.__month_lengths
                0x00000000       0x60 c:/program files/microchip/xc32/v2.41/bin/bin/../../lib/gcc/pic32c/6.2.1/../../../../pic32c/lib\libc_nano.a(lib_a-month_lengths.o)
 .debug_info    0x00000000      0xe0b c:/program files/microchip/xc32/v2.41/bin/bin/../../lib/gcc/pic32c/6.2.1/../../../../pic32c/lib\libc_nano.a(lib_a-month_lengths.o)
 .debug_abbrev  0x00000000      0x139 c:/program files/microchip/xc32/v2.41/bin/bin/../../lib/gcc/pic32c/6.2.1/../../../../pic32c/lib\libc_nano.a(lib_a-month_lengths.o)
 .debug_aranges
                0x00000000       0x18 c:/program files/microchip/xc32/v2.41/bin/bin/../../lib/gcc/pic32c/6.2.1/../../../../pic32c/lib\libc_nano.a(lib_a-month_lengths.o)
 .debug_line    0x00000000      0x1fe c:/program files/microchip/xc32/v2.41/bin/bin/../../lib/gcc/pic32c/6.2.1/../../../../pic32c/lib\libc_nano.a(lib_a-month_lengths.o)
 .debug_str     0x00000000        0x9 c:/program files/microchip/xc32/v2.41/bin/bin/../../lib/gcc/pic32c/6.2.1/../../../../pic32c/lib\libc_nano.a(lib_a-month_lengths.o)
 .comment       0x00000000       0x3d c:/program files/microchip/xc32/v2.41/bin/bin/../../lib/gcc/pic32c/6.2.1/../../../../pic32c/lib\libc_nano.a(lib_a-month_lengths.o)
 .ARM.attributes
                0x00000000       0x2c c:/program files/microchip/xc32/v2.41/bin/bin/../../lib/gcc/pic32c/6.2.1/../../../../pic32c/lib\libc_nano.a(lib_a-month_lengths.o)
 .text          0x00000000        0x0 c:/program files/microchip/xc32/v2.41/bin/bin/../../lib/gcc/pic32c/6.2.1/../../../../pic32c/lib\libc_nano.a(_lib_a-nano-vfprintf.cdnopuxX.o)
 .data          0x00000000        0x0 c:/program files/microchip/xc32/v2.41/bin/bin/../../lib/gcc/pic32c/6.2.1/../../../../pic32c/lib\libc_nano.a(_lib_a-nano-vfprintf.cdnopuxX.o)
 .bss           0x00000000        0x0 c:/program files/microchip/xc32/v2.41/bin/bin/../../lib/gcc/pic32c/6.2.1/../../../../pic32c/lib\libc_nano.a(_lib_a-nano-vfprintf.cdnopuxX.o)
 .text.__printf_float
                0x00000000        0x6 c:/program files/microchip/xc32/v2.41/bin/bin/../../lib/gcc/pic32c/6.2.1/../../../../pic32c/lib\libc_nano.a(_lib_a-nano-vfprintf.cdnopuxX.o)
 .text._vfprintf_r_cdnopuxX
                0x00000000      0x3dc c:/program files/microchip/xc32/v2.41/bin/bin/../../lib/gcc/pic32c/6.2.1/../../../../pic32c/lib\libc_nano.a(_lib_a-nano-vfprintf.cdnopuxX.o)
 .text._vfprintf_cdnopuxX
                0x00000000       0x18 c:/program files/microchip/xc32/v2.41/bin/bin/../../lib/gcc/pic32c/6.2.1/../../../../pic32c/lib\libc_nano.a(_lib_a-nano-vfprintf.cdnopuxX.o)
 .rodata        0x00000000       0x33 c:/program files/microchip/xc32/v2.41/bin/bin/../../lib/gcc/pic32c/6.2.1/../../../../pic32c/lib\libc_nano.a(_lib_a-nano-vfprintf.cdnopuxX.o)
 .debug_info    0x00000000     0x1e92 c:/program files/microchip/xc32/v2.41/bin/bin/../../lib/gcc/pic32c/6.2.1/../../../../pic32c/lib\libc_nano.a(_lib_a-nano-vfprintf.cdnopuxX.o)
 .debug_abbrev  0x00000000      0x30c c:/program files/microchip/xc32/v2.41/bin/bin/../../lib/gcc/pic32c/6.2.1/../../../../pic32c/lib\libc_nano.a(_lib_a-nano-vfprintf.cdnopuxX.o)
 .debug_loc     0x00000000      0x996 c:/program files/microchip/xc32/v2.41/bin/bin/../../lib/gcc/pic32c/6.2.1/../../../../pic32c/lib\libc_nano.a(_lib_a-nano-vfprintf.cdnopuxX.o)
 .debug_aranges
                0x00000000       0x30 c:/program files/microchip/xc32/v2.41/bin/bin/../../lib/gcc/pic32c/6.2.1/../../../../pic32c/lib\libc_nano.a(_lib_a-nano-vfprintf.cdnopuxX.o)
 .debug_ranges  0x00000000       0x60 c:/program files/microchip/xc32/v2.41/bin/bin/../../lib/gcc/pic32c/6.2.1/../../../../pic32c/lib\libc_nano.a(_lib_a-nano-vfprintf.cdnopuxX.o)
 .debug_line    0x00000000      0x3c3 c:/program files/microchip/xc32/v2.41/bin/bin/../../lib/gcc/pic32c/6.2.1/../../../../pic32c/lib\libc_nano.a(_lib_a-nano-vfprintf.cdnopuxX.o)
 .debug_str     0x00000000      0x13b c:/program files/microchip/xc32/v2.41/bin/bin/../../lib/gcc/pic32c/6.2.1/../../../../pic32c/lib\libc_nano.a(_lib_a-nano-vfprintf.cdnopuxX.o)
 .comment       0x00000000       0x3d c:/program files/microchip/xc32/v2.41/bin/bin/../../lib/gcc/pic32c/6.2.1/../../../../pic32c/lib\libc_nano.a(_lib_a-nano-vfprintf.cdnopuxX.o)
 .debug_frame   0x00000000       0x5c c:/program files/microchip/xc32/v2.41/bin/bin/../../lib/gcc/pic32c/6.2.1/../../../../pic32c/lib\libc_nano.a(_lib_a-nano-vfprintf.cdnopuxX.o)
 .ARM.attributes
                0x00000000       0x2c c:/program files/microchip/xc32/v2.41/bin/bin/../../lib/gcc/pic32c/6.2.1/../../../../pic32c/lib\libc_nano.a(_lib_a-nano-vfprintf.cdnopuxX.o)
 .text          0x00000000        0x0 c:/program files/microchip/xc32/v2.41/bin/bin/../../lib/gcc/pic32c/6.2.1/../../../../pic32c/lib\libc_nano.a(lib_a-nano-vfprintf_i.o)
 .data          0x00000000        0x0 c:/program files/microchip/xc32/v2.41/bin/bin/../../lib/gcc/pic32c/6.2.1/../../../../pic32c/lib\libc_nano.a(lib_a-nano-vfprintf_i.o)
 .bss           0x00000000        0x0 c:/program files/microchip/xc32/v2.41/bin/bin/../../lib/gcc/pic32c/6.2.1/../../../../pic32c/lib\libc_nano.a(lib_a-nano-vfprintf_i.o)
 .text._printf_common
                0x00000000       0xda c:/program files/microchip/xc32/v2.41/bin/bin/../../lib/gcc/pic32c/6.2.1/../../../../pic32c/lib\libc_nano.a(lib_a-nano-vfprintf_i.o)
 .text._printf_i
                0x00000000      0x234 c:/program files/microchip/xc32/v2.41/bin/bin/../../lib/gcc/pic32c/6.2.1/../../../../pic32c/lib\libc_nano.a(lib_a-nano-vfprintf_i.o)
 .rodata        0x00000000       0x22 c:/program files/microchip/xc32/v2.41/bin/bin/../../lib/gcc/pic32c/6.2.1/../../../../pic32c/lib\libc_nano.a(lib_a-nano-vfprintf_i.o)
 .debug_info    0x00000000     0x1d15 c:/program files/microchip/xc32/v2.41/bin/bin/../../lib/gcc/pic32c/6.2.1/../../../../pic32c/lib\libc_nano.a(lib_a-nano-vfprintf_i.o)
 .debug_abbrev  0x00000000      0x25f c:/program files/microchip/xc32/v2.41/bin/bin/../../lib/gcc/pic32c/6.2.1/../../../../pic32c/lib\libc_nano.a(lib_a-nano-vfprintf_i.o)
 .debug_loc     0x00000000      0x66f c:/program files/microchip/xc32/v2.41/bin/bin/../../lib/gcc/pic32c/6.2.1/../../../../pic32c/lib\libc_nano.a(lib_a-nano-vfprintf_i.o)
 .debug_aranges
                0x00000000       0x28 c:/program files/microchip/xc32/v2.41/bin/bin/../../lib/gcc/pic32c/6.2.1/../../../../pic32c/lib\libc_nano.a(lib_a-nano-vfprintf_i.o)
 .debug_ranges  0x00000000       0x90 c:/program files/microchip/xc32/v2.41/bin/bin/../../lib/gcc/pic32c/6.2.1/../../../../pic32c/lib\libc_nano.a(lib_a-nano-vfprintf_i.o)
 .debug_line    0x00000000      0x490 c:/program files/microchip/xc32/v2.41/bin/bin/../../lib/gcc/pic32c/6.2.1/../../../../pic32c/lib\libc_nano.a(lib_a-nano-vfprintf_i.o)
 .debug_str     0x00000000      0x11b c:/program files/microchip/xc32/v2.41/bin/bin/../../lib/gcc/pic32c/6.2.1/../../../../pic32c/lib\libc_nano.a(lib_a-nano-vfprintf_i.o)
 .comment       0x00000000       0x3d c:/program files/microchip/xc32/v2.41/bin/bin/../../lib/gcc/pic32c/6.2.1/../../../../pic32c/lib\libc_nano.a(lib_a-nano-vfprintf_i.o)
 .debug_frame   0x00000000       0x54 c:/program files/microchip/xc32/v2.41/bin/bin/../../lib/gcc/pic32c/6.2.1/../../../../pic32c/lib\libc_nano.a(lib_a-nano-vfprintf_i.o)
 .ARM.attributes
                0x00000000       0x2c c:/program files/microchip/xc32/v2.41/bin/bin/../../lib/gcc/pic32c/6.2.1/../../../../pic32c/lib\libc_nano.a(lib_a-nano-vfprintf_i.o)
 .text          0x00000000        0x0 c:/program files/microchip/xc32/v2.41/bin/bin/../../lib/gcc/pic32c/6.2.1/../../../../pic32c/lib\libc_nano.a(lib_a-reent.o)
 .data          0x00000000        0x0 c:/program files/microchip/xc32/v2.41/bin/bin/../../lib/gcc/pic32c/6.2.1/../../../../pic32c/lib\libc_nano.a(lib_a-reent.o)
 .bss           0x00000000        0x0 c:/program files/microchip/xc32/v2.41/bin/bin/../../lib/gcc/pic32c/6.2.1/../../../../pic32c/lib\libc_nano.a(lib_a-reent.o)
 .text.cleanup_glue
                0x00000000       0x1a c:/program files/microchip/xc32/v2.41/bin/bin/../../lib/gcc/pic32c/6.2.1/../../../../pic32c/lib\libc_nano.a(lib_a-reent.o)
 .text._reclaim_reent
                0x00000000       0xcc c:/program files/microchip/xc32/v2.41/bin/bin/../../lib/gcc/pic32c/6.2.1/../../../../pic32c/lib\libc_nano.a(lib_a-reent.o)
 .debug_info    0x00000000      0xf2f c:/program files/microchip/xc32/v2.41/bin/bin/../../lib/gcc/pic32c/6.2.1/../../../../pic32c/lib\libc_nano.a(lib_a-reent.o)
 .debug_abbrev  0x00000000      0x1ea c:/program files/microchip/xc32/v2.41/bin/bin/../../lib/gcc/pic32c/6.2.1/../../../../pic32c/lib\libc_nano.a(lib_a-reent.o)
 .debug_loc     0x00000000      0x10b c:/program files/microchip/xc32/v2.41/bin/bin/../../lib/gcc/pic32c/6.2.1/../../../../pic32c/lib\libc_nano.a(lib_a-reent.o)
 .debug_aranges
                0x00000000       0x28 c:/program files/microchip/xc32/v2.41/bin/bin/../../lib/gcc/pic32c/6.2.1/../../../../pic32c/lib\libc_nano.a(lib_a-reent.o)
 .debug_ranges  0x00000000       0x48 c:/program files/microchip/xc32/v2.41/bin/bin/../../lib/gcc/pic32c/6.2.1/../../../../pic32c/lib\libc_nano.a(lib_a-reent.o)
 .debug_line    0x00000000      0x23f c:/program files/microchip/xc32/v2.41/bin/bin/../../lib/gcc/pic32c/6.2.1/../../../../pic32c/lib\libc_nano.a(lib_a-reent.o)
 .debug_str     0x00000000        0x9 c:/program files/microchip/xc32/v2.41/bin/bin/../../lib/gcc/pic32c/6.2.1/../../../../pic32c/lib\libc_nano.a(lib_a-reent.o)
 .comment       0x00000000       0x3d c:/program files/microchip/xc32/v2.41/bin/bin/../../lib/gcc/pic32c/6.2.1/../../../../pic32c/lib\libc_nano.a(lib_a-reent.o)
 .debug_frame   0x00000000       0x48 c:/program files/microchip/xc32/v2.41/bin/bin/../../lib/gcc/pic32c/6.2.1/../../../../pic32c/lib\libc_nano.a(lib_a-reent.o)
 .ARM.attributes
                0x00000000       0x2c c:/program files/microchip/xc32/v2.41/bin/bin/../../lib/gcc/pic32c/6.2.1/../../../../pic32c/lib\libc_nano.a(lib_a-reent.o)
 COMMON         0x00000000        0x4 c:/program files/microchip/xc32/v2.41/bin/bin/../../lib/gcc/pic32c/6.2.1/../../../../pic32c/lib\libc_nano.a(lib_a-reent.o)
 .text          0x00000000        0x0 c:/program files/microchip/xc32/v2.41/bin/bin/../../lib/gcc/pic32c/6.2.1/../../../../pic32c/lib\libc_nano.a(lib_a-sscanf.o)
 .data          0x00000000        0x0 c:/program files/microchip/xc32/v2.41/bin/bin/../../lib/gcc/pic32c/6.2.1/../../../../pic32c/lib\libc_nano.a(lib_a-sscanf.o)
 .bss           0x00000000        0x0 c:/program files/microchip/xc32/v2.41/bin/bin/../../lib/gcc/pic32c/6.2.1/../../../../pic32c/lib\libc_nano.a(lib_a-sscanf.o)
 .text.sscanf   0x00000000       0x50 c:/program files/microchip/xc32/v2.41/bin/bin/../../lib/gcc/pic32c/6.2.1/../../../../pic32c/lib\libc_nano.a(lib_a-sscanf.o)
 .text._sscanf_r
                0x00000000       0x4c c:/program files/microchip/xc32/v2.41/bin/bin/../../lib/gcc/pic32c/6.2.1/../../../../pic32c/lib\libc_nano.a(lib_a-sscanf.o)
 .debug_info    0x00000000     0x11cb c:/program files/microchip/xc32/v2.41/bin/bin/../../lib/gcc/pic32c/6.2.1/../../../../pic32c/lib\libc_nano.a(lib_a-sscanf.o)
 .debug_abbrev  0x00000000      0x209 c:/program files/microchip/xc32/v2.41/bin/bin/../../lib/gcc/pic32c/6.2.1/../../../../pic32c/lib\libc_nano.a(lib_a-sscanf.o)
 .debug_loc     0x00000000       0xe0 c:/program files/microchip/xc32/v2.41/bin/bin/../../lib/gcc/pic32c/6.2.1/../../../../pic32c/lib\libc_nano.a(lib_a-sscanf.o)
 .debug_aranges
                0x00000000       0x28 c:/program files/microchip/xc32/v2.41/bin/bin/../../lib/gcc/pic32c/6.2.1/../../../../pic32c/lib\libc_nano.a(lib_a-sscanf.o)
 .debug_ranges  0x00000000       0x18 c:/program files/microchip/xc32/v2.41/bin/bin/../../lib/gcc/pic32c/6.2.1/../../../../pic32c/lib\libc_nano.a(lib_a-sscanf.o)
 .debug_line    0x00000000      0x289 c:/program files/microchip/xc32/v2.41/bin/bin/../../lib/gcc/pic32c/6.2.1/../../../../pic32c/lib\libc_nano.a(lib_a-sscanf.o)
 .debug_str     0x00000000       0x17 c:/program files/microchip/xc32/v2.41/bin/bin/../../lib/gcc/pic32c/6.2.1/../../../../pic32c/lib\libc_nano.a(lib_a-sscanf.o)
 .comment       0x00000000       0x3d c:/program files/microchip/xc32/v2.41/bin/bin/../../lib/gcc/pic32c/6.2.1/../../../../pic32c/lib\libc_nano.a(lib_a-sscanf.o)
 .debug_frame   0x00000000       0x58 c:/program files/microchip/xc32/v2.41/bin/bin/../../lib/gcc/pic32c/6.2.1/../../../../pic32c/lib\libc_nano.a(lib_a-sscanf.o)
 .ARM.attributes
                0x00000000       0x2c c:/program files/microchip/xc32/v2.41/bin/bin/../../lib/gcc/pic32c/6.2.1/../../../../pic32c/lib\libc_nano.a(lib_a-sscanf.o)
 .text          0x00000000        0x0 c:/program files/microchip/xc32/v2.41/bin/bin/../../lib/gcc/pic32c/6.2.1/../../../../pic32c/lib\libc_nano.a(lib_a-__ssfputs.o)
 .data          0x00000000        0x0 c:/program files/microchip/xc32/v2.41/bin/bin/../../lib/gcc/pic32c/6.2.1/../../../../pic32c/lib\libc_nano.a(lib_a-__ssfputs.o)
 .bss           0x00000000        0x0 c:/program files/microchip/xc32/v2.41/bin/bin/../../lib/gcc/pic32c/6.2.1/../../../../pic32c/lib\libc_nano.a(lib_a-__ssfputs.o)
 .text.__sfputc_r
                0x00000000       0x2a c:/program files/microchip/xc32/v2.41/bin/bin/../../lib/gcc/pic32c/6.2.1/../../../../pic32c/lib\libc_nano.a(lib_a-__ssfputs.o)
 .text.__ssfputs_r
                0x00000000       0x48 c:/program files/microchip/xc32/v2.41/bin/bin/../../lib/gcc/pic32c/6.2.1/../../../../pic32c/lib\libc_nano.a(lib_a-__ssfputs.o)
 .debug_info    0x00000000     0x188d c:/program files/microchip/xc32/v2.41/bin/bin/../../lib/gcc/pic32c/6.2.1/../../../../pic32c/lib\libc_nano.a(lib_a-__ssfputs.o)
 .debug_abbrev  0x00000000      0x1f6 c:/program files/microchip/xc32/v2.41/bin/bin/../../lib/gcc/pic32c/6.2.1/../../../../pic32c/lib\libc_nano.a(lib_a-__ssfputs.o)
 .debug_loc     0x00000000      0x1da c:/program files/microchip/xc32/v2.41/bin/bin/../../lib/gcc/pic32c/6.2.1/../../../../pic32c/lib\libc_nano.a(lib_a-__ssfputs.o)
 .debug_aranges
                0x00000000       0x28 c:/program files/microchip/xc32/v2.41/bin/bin/../../lib/gcc/pic32c/6.2.1/../../../../pic32c/lib\libc_nano.a(lib_a-__ssfputs.o)
 .debug_ranges  0x00000000       0x30 c:/program files/microchip/xc32/v2.41/bin/bin/../../lib/gcc/pic32c/6.2.1/../../../../pic32c/lib\libc_nano.a(lib_a-__ssfputs.o)
 .debug_line    0x00000000      0x365 c:/program files/microchip/xc32/v2.41/bin/bin/../../lib/gcc/pic32c/6.2.1/../../../../pic32c/lib\libc_nano.a(lib_a-__ssfputs.o)
 .debug_str     0x00000000      0x128 c:/program files/microchip/xc32/v2.41/bin/bin/../../lib/gcc/pic32c/6.2.1/../../../../pic32c/lib\libc_nano.a(lib_a-__ssfputs.o)
 .comment       0x00000000       0x3d c:/program files/microchip/xc32/v2.41/bin/bin/../../lib/gcc/pic32c/6.2.1/../../../../pic32c/lib\libc_nano.a(lib_a-__ssfputs.o)
 .debug_frame   0x00000000       0x48 c:/program files/microchip/xc32/v2.41/bin/bin/../../lib/gcc/pic32c/6.2.1/../../../../pic32c/lib\libc_nano.a(lib_a-__ssfputs.o)
 .ARM.attributes
                0x00000000       0x2c c:/program files/microchip/xc32/v2.41/bin/bin/../../lib/gcc/pic32c/6.2.1/../../../../pic32c/lib\libc_nano.a(lib_a-__ssfputs.o)
 .text          0x00000000        0x0 c:/program files/microchip/xc32/v2.41/bin/bin/../../lib/gcc/pic32c/6.2.1/../../../../pic32c/lib\libc_nano.a(lib_a-stdio.o)
 .data          0x00000000        0x0 c:/program files/microchip/xc32/v2.41/bin/bin/../../lib/gcc/pic32c/6.2.1/../../../../pic32c/lib\libc_nano.a(lib_a-stdio.o)
 .bss           0x00000000        0x0 c:/program files/microchip/xc32/v2.41/bin/bin/../../lib/gcc/pic32c/6.2.1/../../../../pic32c/lib\libc_nano.a(lib_a-stdio.o)
 .text.__sread  0x00000000       0x28 c:/program files/microchip/xc32/v2.41/bin/bin/../../lib/gcc/pic32c/6.2.1/../../../../pic32c/lib\libc_nano.a(lib_a-stdio.o)
 .text.__seofread
                0x00000000        0x4 c:/program files/microchip/xc32/v2.41/bin/bin/../../lib/gcc/pic32c/6.2.1/../../../../pic32c/lib\libc_nano.a(lib_a-stdio.o)
 .text.__swrite
                0x00000000       0x38 c:/program files/microchip/xc32/v2.41/bin/bin/../../lib/gcc/pic32c/6.2.1/../../../../pic32c/lib\libc_nano.a(lib_a-stdio.o)
 .text.__sseek  0x00000000       0x2c c:/program files/microchip/xc32/v2.41/bin/bin/../../lib/gcc/pic32c/6.2.1/../../../../pic32c/lib\libc_nano.a(lib_a-stdio.o)
 .text.__sclose
                0x00000000        0xc c:/program files/microchip/xc32/v2.41/bin/bin/../../lib/gcc/pic32c/6.2.1/../../../../pic32c/lib\libc_nano.a(lib_a-stdio.o)
 .debug_info    0x00000000     0x135a c:/program files/microchip/xc32/v2.41/bin/bin/../../lib/gcc/pic32c/6.2.1/../../../../pic32c/lib\libc_nano.a(lib_a-stdio.o)
 .debug_abbrev  0x00000000      0x224 c:/program files/microchip/xc32/v2.41/bin/bin/../../lib/gcc/pic32c/6.2.1/../../../../pic32c/lib\libc_nano.a(lib_a-stdio.o)
 .debug_loc     0x00000000      0x382 c:/program files/microchip/xc32/v2.41/bin/bin/../../lib/gcc/pic32c/6.2.1/../../../../pic32c/lib\libc_nano.a(lib_a-stdio.o)
 .debug_aranges
                0x00000000       0x40 c:/program files/microchip/xc32/v2.41/bin/bin/../../lib/gcc/pic32c/6.2.1/../../../../pic32c/lib\libc_nano.a(lib_a-stdio.o)
 .debug_ranges  0x00000000       0x30 c:/program files/microchip/xc32/v2.41/bin/bin/../../lib/gcc/pic32c/6.2.1/../../../../pic32c/lib\libc_nano.a(lib_a-stdio.o)
 .debug_line    0x00000000      0x2a3 c:/program files/microchip/xc32/v2.41/bin/bin/../../lib/gcc/pic32c/6.2.1/../../../../pic32c/lib\libc_nano.a(lib_a-stdio.o)
 .debug_str     0x00000000       0x2b c:/program files/microchip/xc32/v2.41/bin/bin/../../lib/gcc/pic32c/6.2.1/../../../../pic32c/lib\libc_nano.a(lib_a-stdio.o)
 .comment       0x00000000       0x3d c:/program files/microchip/xc32/v2.41/bin/bin/../../lib/gcc/pic32c/6.2.1/../../../../pic32c/lib\libc_nano.a(lib_a-stdio.o)
 .debug_frame   0x00000000       0x90 c:/program files/microchip/xc32/v2.41/bin/bin/../../lib/gcc/pic32c/6.2.1/../../../../pic32c/lib\libc_nano.a(lib_a-stdio.o)
 .ARM.attributes
                0x00000000       0x2c c:/program files/microchip/xc32/v2.41/bin/bin/../../lib/gcc/pic32c/6.2.1/../../../../pic32c/lib\libc_nano.a(lib_a-stdio.o)
 .text          0x00000000       0x14 c:/program files/microchip/xc32/v2.41/bin/bin/../../lib/gcc/pic32c/6.2.1/../../../../pic32c/lib\libc_nano.a(lib_a-strcmp.o)
 .data          0x00000000        0x0 c:/program files/microchip/xc32/v2.41/bin/bin/../../lib/gcc/pic32c/6.2.1/../../../../pic32c/lib\libc_nano.a(lib_a-strcmp.o)
 .bss           0x00000000        0x0 c:/program files/microchip/xc32/v2.41/bin/bin/../../lib/gcc/pic32c/6.2.1/../../../../pic32c/lib\libc_nano.a(lib_a-strcmp.o)
 .debug_line    0x00000000       0xb1 c:/program files/microchip/xc32/v2.41/bin/bin/../../lib/gcc/pic32c/6.2.1/../../../../pic32c/lib\libc_nano.a(lib_a-strcmp.o)
 .debug_info    0x00000000      0x114 c:/program files/microchip/xc32/v2.41/bin/bin/../../lib/gcc/pic32c/6.2.1/../../../../pic32c/lib\libc_nano.a(lib_a-strcmp.o)
 .debug_abbrev  0x00000000       0x14 c:/program files/microchip/xc32/v2.41/bin/bin/../../lib/gcc/pic32c/6.2.1/../../../../pic32c/lib\libc_nano.a(lib_a-strcmp.o)
 .debug_aranges
                0x00000000       0x20 c:/program files/microchip/xc32/v2.41/bin/bin/../../lib/gcc/pic32c/6.2.1/../../../../pic32c/lib\libc_nano.a(lib_a-strcmp.o)
 .debug_frame   0x00000000       0x20 c:/program files/microchip/xc32/v2.41/bin/bin/../../lib/gcc/pic32c/6.2.1/../../../../pic32c/lib\libc_nano.a(lib_a-strcmp.o)
 .ARM.attributes
                0x00000000       0x1c c:/program files/microchip/xc32/v2.41/bin/bin/../../lib/gcc/pic32c/6.2.1/../../../../pic32c/lib\libc_nano.a(lib_a-strcmp.o)
 .text          0x00000000        0x0 c:/program files/microchip/xc32/v2.41/bin/bin/../../lib/gcc/pic32c/6.2.1/../../../../pic32c/lib\libc_nano.a(lib_a-strcpy.o)
 .data          0x00000000        0x0 c:/program files/microchip/xc32/v2.41/bin/bin/../../lib/gcc/pic32c/6.2.1/../../../../pic32c/lib\libc_nano.a(lib_a-strcpy.o)
 .bss           0x00000000        0x0 c:/program files/microchip/xc32/v2.41/bin/bin/../../lib/gcc/pic32c/6.2.1/../../../../pic32c/lib\libc_nano.a(lib_a-strcpy.o)
 .text.strcpy   0x00000000       0x10 c:/program files/microchip/xc32/v2.41/bin/bin/../../lib/gcc/pic32c/6.2.1/../../../../pic32c/lib\libc_nano.a(lib_a-strcpy.o)
 .debug_info    0x00000000      0xd58 c:/program files/microchip/xc32/v2.41/bin/bin/../../lib/gcc/pic32c/6.2.1/../../../../pic32c/lib\libc_nano.a(lib_a-strcpy.o)
 .debug_abbrev  0x00000000      0x157 c:/program files/microchip/xc32/v2.41/bin/bin/../../lib/gcc/pic32c/6.2.1/../../../../pic32c/lib\libc_nano.a(lib_a-strcpy.o)
 .debug_loc     0x00000000       0x21 c:/program files/microchip/xc32/v2.41/bin/bin/../../lib/gcc/pic32c/6.2.1/../../../../pic32c/lib\libc_nano.a(lib_a-strcpy.o)
 .debug_aranges
                0x00000000       0x20 c:/program files/microchip/xc32/v2.41/bin/bin/../../lib/gcc/pic32c/6.2.1/../../../../pic32c/lib\libc_nano.a(lib_a-strcpy.o)
 .debug_ranges  0x00000000       0x10 c:/program files/microchip/xc32/v2.41/bin/bin/../../lib/gcc/pic32c/6.2.1/../../../../pic32c/lib\libc_nano.a(lib_a-strcpy.o)
 .debug_line    0x00000000      0x205 c:/program files/microchip/xc32/v2.41/bin/bin/../../lib/gcc/pic32c/6.2.1/../../../../pic32c/lib\libc_nano.a(lib_a-strcpy.o)
 .debug_str     0x00000000        0x9 c:/program files/microchip/xc32/v2.41/bin/bin/../../lib/gcc/pic32c/6.2.1/../../../../pic32c/lib\libc_nano.a(lib_a-strcpy.o)
 .comment       0x00000000       0x3d c:/program files/microchip/xc32/v2.41/bin/bin/../../lib/gcc/pic32c/6.2.1/../../../../pic32c/lib\libc_nano.a(lib_a-strcpy.o)
 .debug_frame   0x00000000       0x20 c:/program files/microchip/xc32/v2.41/bin/bin/../../lib/gcc/pic32c/6.2.1/../../../../pic32c/lib\libc_nano.a(lib_a-strcpy.o)
 .ARM.attributes
                0x00000000       0x2c c:/program files/microchip/xc32/v2.41/bin/bin/../../lib/gcc/pic32c/6.2.1/../../../../pic32c/lib\libc_nano.a(lib_a-strcpy.o)
 .text          0x00000000        0x0 c:/program files/microchip/xc32/v2.41/bin/bin/../../lib/gcc/pic32c/6.2.1/../../../../pic32c/lib\libc_nano.a(lib_a-strncmp.o)
 .data          0x00000000        0x0 c:/program files/microchip/xc32/v2.41/bin/bin/../../lib/gcc/pic32c/6.2.1/../../../../pic32c/lib\libc_nano.a(lib_a-strncmp.o)
 .bss           0x00000000        0x0 c:/program files/microchip/xc32/v2.41/bin/bin/../../lib/gcc/pic32c/6.2.1/../../../../pic32c/lib\libc_nano.a(lib_a-strncmp.o)
 .text.strncmp  0x00000000       0x22 c:/program files/microchip/xc32/v2.41/bin/bin/../../lib/gcc/pic32c/6.2.1/../../../../pic32c/lib\libc_nano.a(lib_a-strncmp.o)
 .debug_info    0x00000000      0xd71 c:/program files/microchip/xc32/v2.41/bin/bin/../../lib/gcc/pic32c/6.2.1/../../../../pic32c/lib\libc_nano.a(lib_a-strncmp.o)
 .debug_abbrev  0x00000000      0x148 c:/program files/microchip/xc32/v2.41/bin/bin/../../lib/gcc/pic32c/6.2.1/../../../../pic32c/lib\libc_nano.a(lib_a-strncmp.o)
 .debug_loc     0x00000000       0xbf c:/program files/microchip/xc32/v2.41/bin/bin/../../lib/gcc/pic32c/6.2.1/../../../../pic32c/lib\libc_nano.a(lib_a-strncmp.o)
 .debug_aranges
                0x00000000       0x20 c:/program files/microchip/xc32/v2.41/bin/bin/../../lib/gcc/pic32c/6.2.1/../../../../pic32c/lib\libc_nano.a(lib_a-strncmp.o)
 .debug_ranges  0x00000000       0x10 c:/program files/microchip/xc32/v2.41/bin/bin/../../lib/gcc/pic32c/6.2.1/../../../../pic32c/lib\libc_nano.a(lib_a-strncmp.o)
 .debug_line    0x00000000      0x20d c:/program files/microchip/xc32/v2.41/bin/bin/../../lib/gcc/pic32c/6.2.1/../../../../pic32c/lib\libc_nano.a(lib_a-strncmp.o)
 .debug_str     0x00000000        0x9 c:/program files/microchip/xc32/v2.41/bin/bin/../../lib/gcc/pic32c/6.2.1/../../../../pic32c/lib\libc_nano.a(lib_a-strncmp.o)
 .comment       0x00000000       0x3d c:/program files/microchip/xc32/v2.41/bin/bin/../../lib/gcc/pic32c/6.2.1/../../../../pic32c/lib\libc_nano.a(lib_a-strncmp.o)
 .debug_frame   0x00000000       0x2c c:/program files/microchip/xc32/v2.41/bin/bin/../../lib/gcc/pic32c/6.2.1/../../../../pic32c/lib\libc_nano.a(lib_a-strncmp.o)
 .ARM.attributes
                0x00000000       0x2c c:/program files/microchip/xc32/v2.41/bin/bin/../../lib/gcc/pic32c/6.2.1/../../../../pic32c/lib\libc_nano.a(lib_a-strncmp.o)
 .text          0x00000000        0x0 c:/program files/microchip/xc32/v2.41/bin/bin/../../lib/gcc/pic32c/6.2.1/../../../../pic32c/lib\libc_nano.a(lib_a-strtoul.o)
 .data          0x00000000        0x0 c:/program files/microchip/xc32/v2.41/bin/bin/../../lib/gcc/pic32c/6.2.1/../../../../pic32c/lib\libc_nano.a(lib_a-strtoul.o)
 .bss           0x00000000        0x0 c:/program files/microchip/xc32/v2.41/bin/bin/../../lib/gcc/pic32c/6.2.1/../../../../pic32c/lib\libc_nano.a(lib_a-strtoul.o)
 .text._strtoul_l.isra.0
                0x00000000      0x108 c:/program files/microchip/xc32/v2.41/bin/bin/../../lib/gcc/pic32c/6.2.1/../../../../pic32c/lib\libc_nano.a(lib_a-strtoul.o)
 .text._strtoul_r
                0x00000000       0x20 c:/program files/microchip/xc32/v2.41/bin/bin/../../lib/gcc/pic32c/6.2.1/../../../../pic32c/lib\libc_nano.a(lib_a-strtoul.o)
 .text.strtoul_l
                0x00000000       0x18 c:/program files/microchip/xc32/v2.41/bin/bin/../../lib/gcc/pic32c/6.2.1/../../../../pic32c/lib\libc_nano.a(lib_a-strtoul.o)
 .text.strtoul  0x00000000       0x28 c:/program files/microchip/xc32/v2.41/bin/bin/../../lib/gcc/pic32c/6.2.1/../../../../pic32c/lib\libc_nano.a(lib_a-strtoul.o)
 .debug_info    0x00000000     0x1850 c:/program files/microchip/xc32/v2.41/bin/bin/../../lib/gcc/pic32c/6.2.1/../../../../pic32c/lib\libc_nano.a(lib_a-strtoul.o)
 .debug_abbrev  0x00000000      0x220 c:/program files/microchip/xc32/v2.41/bin/bin/../../lib/gcc/pic32c/6.2.1/../../../../pic32c/lib\libc_nano.a(lib_a-strtoul.o)
 .debug_loc     0x00000000      0x4f8 c:/program files/microchip/xc32/v2.41/bin/bin/../../lib/gcc/pic32c/6.2.1/../../../../pic32c/lib\libc_nano.a(lib_a-strtoul.o)
 .debug_aranges
                0x00000000       0x38 c:/program files/microchip/xc32/v2.41/bin/bin/../../lib/gcc/pic32c/6.2.1/../../../../pic32c/lib\libc_nano.a(lib_a-strtoul.o)
 .debug_ranges  0x00000000       0x28 c:/program files/microchip/xc32/v2.41/bin/bin/../../lib/gcc/pic32c/6.2.1/../../../../pic32c/lib\libc_nano.a(lib_a-strtoul.o)
 .debug_line    0x00000000      0x352 c:/program files/microchip/xc32/v2.41/bin/bin/../../lib/gcc/pic32c/6.2.1/../../../../pic32c/lib\libc_nano.a(lib_a-strtoul.o)
 .debug_str     0x00000000      0x129 c:/program files/microchip/xc32/v2.41/bin/bin/../../lib/gcc/pic32c/6.2.1/../../../../pic32c/lib\libc_nano.a(lib_a-strtoul.o)
 .comment       0x00000000       0x3d c:/program files/microchip/xc32/v2.41/bin/bin/../../lib/gcc/pic32c/6.2.1/../../../../pic32c/lib\libc_nano.a(lib_a-strtoul.o)
 .debug_frame   0x00000000       0x88 c:/program files/microchip/xc32/v2.41/bin/bin/../../lib/gcc/pic32c/6.2.1/../../../../pic32c/lib\libc_nano.a(lib_a-strtoul.o)
 .ARM.attributes
                0x00000000       0x2c c:/program files/microchip/xc32/v2.41/bin/bin/../../lib/gcc/pic32c/6.2.1/../../../../pic32c/lib\libc_nano.a(lib_a-strtoul.o)
 .text          0x00000000        0x0 c:/program files/microchip/xc32/v2.41/bin/bin/../../lib/gcc/pic32c/6.2.1/../../../../pic32c/lib\libc_nano.a(lib_a-wbuf.o)
 .data          0x00000000        0x0 c:/program files/microchip/xc32/v2.41/bin/bin/../../lib/gcc/pic32c/6.2.1/../../../../pic32c/lib\libc_nano.a(lib_a-wbuf.o)
 .bss           0x00000000        0x0 c:/program files/microchip/xc32/v2.41/bin/bin/../../lib/gcc/pic32c/6.2.1/../../../../pic32c/lib\libc_nano.a(lib_a-wbuf.o)
 .text.__swbuf_r
                0x00000000       0xcc c:/program files/microchip/xc32/v2.41/bin/bin/../../lib/gcc/pic32c/6.2.1/../../../../pic32c/lib\libc_nano.a(lib_a-wbuf.o)
 .text.__swbuf  0x00000000       0x14 c:/program files/microchip/xc32/v2.41/bin/bin/../../lib/gcc/pic32c/6.2.1/../../../../pic32c/lib\libc_nano.a(lib_a-wbuf.o)
 .debug_info    0x00000000     0x11b3 c:/program files/microchip/xc32/v2.41/bin/bin/../../lib/gcc/pic32c/6.2.1/../../../../pic32c/lib\libc_nano.a(lib_a-wbuf.o)
 .debug_abbrev  0x00000000      0x208 c:/program files/microchip/xc32/v2.41/bin/bin/../../lib/gcc/pic32c/6.2.1/../../../../pic32c/lib\libc_nano.a(lib_a-wbuf.o)
 .debug_loc     0x00000000      0x194 c:/program files/microchip/xc32/v2.41/bin/bin/../../lib/gcc/pic32c/6.2.1/../../../../pic32c/lib\libc_nano.a(lib_a-wbuf.o)
 .debug_aranges
                0x00000000       0x28 c:/program files/microchip/xc32/v2.41/bin/bin/../../lib/gcc/pic32c/6.2.1/../../../../pic32c/lib\libc_nano.a(lib_a-wbuf.o)
 .debug_ranges  0x00000000       0x30 c:/program files/microchip/xc32/v2.41/bin/bin/../../lib/gcc/pic32c/6.2.1/../../../../pic32c/lib\libc_nano.a(lib_a-wbuf.o)
 .debug_line    0x00000000      0x27d c:/program files/microchip/xc32/v2.41/bin/bin/../../lib/gcc/pic32c/6.2.1/../../../../pic32c/lib\libc_nano.a(lib_a-wbuf.o)
 .debug_str     0x00000000       0x1f c:/program files/microchip/xc32/v2.41/bin/bin/../../lib/gcc/pic32c/6.2.1/../../../../pic32c/lib\libc_nano.a(lib_a-wbuf.o)
 .comment       0x00000000       0x3d c:/program files/microchip/xc32/v2.41/bin/bin/../../lib/gcc/pic32c/6.2.1/../../../../pic32c/lib\libc_nano.a(lib_a-wbuf.o)
 .debug_frame   0x00000000       0x48 c:/program files/microchip/xc32/v2.41/bin/bin/../../lib/gcc/pic32c/6.2.1/../../../../pic32c/lib\libc_nano.a(lib_a-wbuf.o)
 .ARM.attributes
                0x00000000       0x2c c:/program files/microchip/xc32/v2.41/bin/bin/../../lib/gcc/pic32c/6.2.1/../../../../pic32c/lib\libc_nano.a(lib_a-wbuf.o)
 .text          0x00000000        0x0 c:/program files/microchip/xc32/v2.41/bin/bin/../../lib/gcc/pic32c/6.2.1/../../../../pic32c/lib\libc_nano.a(lib_a-writer.o)
 .data          0x00000000        0x0 c:/program files/microchip/xc32/v2.41/bin/bin/../../lib/gcc/pic32c/6.2.1/../../../../pic32c/lib\libc_nano.a(lib_a-writer.o)
 .bss           0x00000000        0x0 c:/program files/microchip/xc32/v2.41/bin/bin/../../lib/gcc/pic32c/6.2.1/../../../../pic32c/lib\libc_nano.a(lib_a-writer.o)
 .text._write_r
                0x00000000       0x28 c:/program files/microchip/xc32/v2.41/bin/bin/../../lib/gcc/pic32c/6.2.1/../../../../pic32c/lib\libc_nano.a(lib_a-writer.o)
 .debug_info    0x00000000      0xe4b c:/program files/microchip/xc32/v2.41/bin/bin/../../lib/gcc/pic32c/6.2.1/../../../../pic32c/lib\libc_nano.a(lib_a-writer.o)
 .debug_abbrev  0x00000000      0x198 c:/program files/microchip/xc32/v2.41/bin/bin/../../lib/gcc/pic32c/6.2.1/../../../../pic32c/lib\libc_nano.a(lib_a-writer.o)
 .debug_loc     0x00000000       0xc5 c:/program files/microchip/xc32/v2.41/bin/bin/../../lib/gcc/pic32c/6.2.1/../../../../pic32c/lib\libc_nano.a(lib_a-writer.o)
 .debug_aranges
                0x00000000       0x20 c:/program files/microchip/xc32/v2.41/bin/bin/../../lib/gcc/pic32c/6.2.1/../../../../pic32c/lib\libc_nano.a(lib_a-writer.o)
 .debug_ranges  0x00000000       0x10 c:/program files/microchip/xc32/v2.41/bin/bin/../../lib/gcc/pic32c/6.2.1/../../../../pic32c/lib\libc_nano.a(lib_a-writer.o)
 .debug_line    0x00000000      0x211 c:/program files/microchip/xc32/v2.41/bin/bin/../../lib/gcc/pic32c/6.2.1/../../../../pic32c/lib\libc_nano.a(lib_a-writer.o)
 .debug_str     0x00000000       0x10 c:/program files/microchip/xc32/v2.41/bin/bin/../../lib/gcc/pic32c/6.2.1/../../../../pic32c/lib\libc_nano.a(lib_a-writer.o)
 .comment       0x00000000       0x3d c:/program files/microchip/xc32/v2.41/bin/bin/../../lib/gcc/pic32c/6.2.1/../../../../pic32c/lib\libc_nano.a(lib_a-writer.o)
 .debug_frame   0x00000000       0x2c c:/program files/microchip/xc32/v2.41/bin/bin/../../lib/gcc/pic32c/6.2.1/../../../../pic32c/lib\libc_nano.a(lib_a-writer.o)
 .ARM.attributes
                0x00000000       0x2c c:/program files/microchip/xc32/v2.41/bin/bin/../../lib/gcc/pic32c/6.2.1/../../../../pic32c/lib\libc_nano.a(lib_a-writer.o)
 .text          0x00000000        0x0 c:/program files/microchip/xc32/v2.41/bin/bin/../../lib/gcc/pic32c/6.2.1/../../../../pic32c/lib\libc_nano.a(lib_a-wsetup.o)
 .data          0x00000000        0x0 c:/program files/microchip/xc32/v2.41/bin/bin/../../lib/gcc/pic32c/6.2.1/../../../../pic32c/lib\libc_nano.a(lib_a-wsetup.o)
 .bss           0x00000000        0x0 c:/program files/microchip/xc32/v2.41/bin/bin/../../lib/gcc/pic32c/6.2.1/../../../../pic32c/lib\libc_nano.a(lib_a-wsetup.o)
 .text.__swsetup_r
                0x00000000       0xec c:/program files/microchip/xc32/v2.41/bin/bin/../../lib/gcc/pic32c/6.2.1/../../../../pic32c/lib\libc_nano.a(lib_a-wsetup.o)
 .debug_info    0x00000000     0x112e c:/program files/microchip/xc32/v2.41/bin/bin/../../lib/gcc/pic32c/6.2.1/../../../../pic32c/lib\libc_nano.a(lib_a-wsetup.o)
 .debug_abbrev  0x00000000      0x1ec c:/program files/microchip/xc32/v2.41/bin/bin/../../lib/gcc/pic32c/6.2.1/../../../../pic32c/lib\libc_nano.a(lib_a-wsetup.o)
 .debug_loc     0x00000000       0x9e c:/program files/microchip/xc32/v2.41/bin/bin/../../lib/gcc/pic32c/6.2.1/../../../../pic32c/lib\libc_nano.a(lib_a-wsetup.o)
 .debug_aranges
                0x00000000       0x20 c:/program files/microchip/xc32/v2.41/bin/bin/../../lib/gcc/pic32c/6.2.1/../../../../pic32c/lib\libc_nano.a(lib_a-wsetup.o)
 .debug_ranges  0x00000000       0x38 c:/program files/microchip/xc32/v2.41/bin/bin/../../lib/gcc/pic32c/6.2.1/../../../../pic32c/lib\libc_nano.a(lib_a-wsetup.o)
 .debug_line    0x00000000      0x26c c:/program files/microchip/xc32/v2.41/bin/bin/../../lib/gcc/pic32c/6.2.1/../../../../pic32c/lib\libc_nano.a(lib_a-wsetup.o)
 .debug_str     0x00000000       0x16 c:/program files/microchip/xc32/v2.41/bin/bin/../../lib/gcc/pic32c/6.2.1/../../../../pic32c/lib\libc_nano.a(lib_a-wsetup.o)
 .comment       0x00000000       0x3d c:/program files/microchip/xc32/v2.41/bin/bin/../../lib/gcc/pic32c/6.2.1/../../../../pic32c/lib\libc_nano.a(lib_a-wsetup.o)
 .debug_frame   0x00000000       0x2c c:/program files/microchip/xc32/v2.41/bin/bin/../../lib/gcc/pic32c/6.2.1/../../../../pic32c/lib\libc_nano.a(lib_a-wsetup.o)
 .ARM.attributes
                0x00000000       0x2c c:/program files/microchip/xc32/v2.41/bin/bin/../../lib/gcc/pic32c/6.2.1/../../../../pic32c/lib\libc_nano.a(lib_a-wsetup.o)
 .text          0x00000000        0x0 c:/program files/microchip/xc32/v2.41/bin/bin/../../lib/gcc/pic32c/6.2.1/../../../../pic32c/lib\libc_nano.a(lib_a-closer.o)
 .data          0x00000000        0x0 c:/program files/microchip/xc32/v2.41/bin/bin/../../lib/gcc/pic32c/6.2.1/../../../../pic32c/lib\libc_nano.a(lib_a-closer.o)
 .bss           0x00000000        0x0 c:/program files/microchip/xc32/v2.41/bin/bin/../../lib/gcc/pic32c/6.2.1/../../../../pic32c/lib\libc_nano.a(lib_a-closer.o)
 .text._close_r
                0x00000000       0x24 c:/program files/microchip/xc32/v2.41/bin/bin/../../lib/gcc/pic32c/6.2.1/../../../../pic32c/lib\libc_nano.a(lib_a-closer.o)
 .debug_info    0x00000000      0xdfa c:/program files/microchip/xc32/v2.41/bin/bin/../../lib/gcc/pic32c/6.2.1/../../../../pic32c/lib\libc_nano.a(lib_a-closer.o)
 .debug_abbrev  0x00000000      0x193 c:/program files/microchip/xc32/v2.41/bin/bin/../../lib/gcc/pic32c/6.2.1/../../../../pic32c/lib\libc_nano.a(lib_a-closer.o)
 .debug_loc     0x00000000       0x6d c:/program files/microchip/xc32/v2.41/bin/bin/../../lib/gcc/pic32c/6.2.1/../../../../pic32c/lib\libc_nano.a(lib_a-closer.o)
 .debug_aranges
                0x00000000       0x20 c:/program files/microchip/xc32/v2.41/bin/bin/../../lib/gcc/pic32c/6.2.1/../../../../pic32c/lib\libc_nano.a(lib_a-closer.o)
 .debug_ranges  0x00000000       0x10 c:/program files/microchip/xc32/v2.41/bin/bin/../../lib/gcc/pic32c/6.2.1/../../../../pic32c/lib\libc_nano.a(lib_a-closer.o)
 .debug_line    0x00000000      0x215 c:/program files/microchip/xc32/v2.41/bin/bin/../../lib/gcc/pic32c/6.2.1/../../../../pic32c/lib\libc_nano.a(lib_a-closer.o)
 .debug_str     0x00000000       0x10 c:/program files/microchip/xc32/v2.41/bin/bin/../../lib/gcc/pic32c/6.2.1/../../../../pic32c/lib\libc_nano.a(lib_a-closer.o)
 .comment       0x00000000       0x3d c:/program files/microchip/xc32/v2.41/bin/bin/../../lib/gcc/pic32c/6.2.1/../../../../pic32c/lib\libc_nano.a(lib_a-closer.o)
 .debug_frame   0x00000000       0x2c c:/program files/microchip/xc32/v2.41/bin/bin/../../lib/gcc/pic32c/6.2.1/../../../../pic32c/lib\libc_nano.a(lib_a-closer.o)
 .ARM.attributes
                0x00000000       0x2c c:/program files/microchip/xc32/v2.41/bin/bin/../../lib/gcc/pic32c/6.2.1/../../../../pic32c/lib\libc_nano.a(lib_a-closer.o)
 .text          0x00000000        0x0 c:/program files/microchip/xc32/v2.41/bin/bin/../../lib/gcc/pic32c/6.2.1/../../../../pic32c/lib\libc_nano.a(lib_a-environ.o)
 .data          0x00000000        0x0 c:/program files/microchip/xc32/v2.41/bin/bin/../../lib/gcc/pic32c/6.2.1/../../../../pic32c/lib\libc_nano.a(lib_a-environ.o)
 .bss           0x00000000        0x0 c:/program files/microchip/xc32/v2.41/bin/bin/../../lib/gcc/pic32c/6.2.1/../../../../pic32c/lib\libc_nano.a(lib_a-environ.o)
 .bss.initial_env
                0x00000000        0x4 c:/program files/microchip/xc32/v2.41/bin/bin/../../lib/gcc/pic32c/6.2.1/../../../../pic32c/lib\libc_nano.a(lib_a-environ.o)
 .data.environ  0x00000000        0x4 c:/program files/microchip/xc32/v2.41/bin/bin/../../lib/gcc/pic32c/6.2.1/../../../../pic32c/lib\libc_nano.a(lib_a-environ.o)
 .debug_info    0x00000000      0x189 c:/program files/microchip/xc32/v2.41/bin/bin/../../lib/gcc/pic32c/6.2.1/../../../../pic32c/lib\libc_nano.a(lib_a-environ.o)
 .debug_abbrev  0x00000000       0x54 c:/program files/microchip/xc32/v2.41/bin/bin/../../lib/gcc/pic32c/6.2.1/../../../../pic32c/lib\libc_nano.a(lib_a-environ.o)
 .debug_aranges
                0x00000000       0x18 c:/program files/microchip/xc32/v2.41/bin/bin/../../lib/gcc/pic32c/6.2.1/../../../../pic32c/lib\libc_nano.a(lib_a-environ.o)
 .debug_line    0x00000000       0x8e c:/program files/microchip/xc32/v2.41/bin/bin/../../lib/gcc/pic32c/6.2.1/../../../../pic32c/lib\libc_nano.a(lib_a-environ.o)
 .debug_str     0x00000000        0x0 c:/program files/microchip/xc32/v2.41/bin/bin/../../lib/gcc/pic32c/6.2.1/../../../../pic32c/lib\libc_nano.a(lib_a-environ.o)
 .comment       0x00000000       0x3d c:/program files/microchip/xc32/v2.41/bin/bin/../../lib/gcc/pic32c/6.2.1/../../../../pic32c/lib\libc_nano.a(lib_a-environ.o)
 .ARM.attributes
                0x00000000       0x2c c:/program files/microchip/xc32/v2.41/bin/bin/../../lib/gcc/pic32c/6.2.1/../../../../pic32c/lib\libc_nano.a(lib_a-environ.o)
 .text          0x00000000        0x0 c:/program files/microchip/xc32/v2.41/bin/bin/../../lib/gcc/pic32c/6.2.1/../../../../pic32c/lib\libc_nano.a(lib_a-envlock.o)
 .data          0x00000000        0x0 c:/program files/microchip/xc32/v2.41/bin/bin/../../lib/gcc/pic32c/6.2.1/../../../../pic32c/lib\libc_nano.a(lib_a-envlock.o)
 .bss           0x00000000        0x0 c:/program files/microchip/xc32/v2.41/bin/bin/../../lib/gcc/pic32c/6.2.1/../../../../pic32c/lib\libc_nano.a(lib_a-envlock.o)
 .text.__env_lock
                0x00000000        0x2 c:/program files/microchip/xc32/v2.41/bin/bin/../../lib/gcc/pic32c/6.2.1/../../../../pic32c/lib\libc_nano.a(lib_a-envlock.o)
 .text.__env_unlock
                0x00000000        0x2 c:/program files/microchip/xc32/v2.41/bin/bin/../../lib/gcc/pic32c/6.2.1/../../../../pic32c/lib\libc_nano.a(lib_a-envlock.o)
 .debug_info    0x00000000      0xd77 c:/program files/microchip/xc32/v2.41/bin/bin/../../lib/gcc/pic32c/6.2.1/../../../../pic32c/lib\libc_nano.a(lib_a-envlock.o)
 .debug_abbrev  0x00000000      0x169 c:/program files/microchip/xc32/v2.41/bin/bin/../../lib/gcc/pic32c/6.2.1/../../../../pic32c/lib\libc_nano.a(lib_a-envlock.o)
 .debug_aranges
                0x00000000       0x20 c:/program files/microchip/xc32/v2.41/bin/bin/../../lib/gcc/pic32c/6.2.1/../../../../pic32c/lib\libc_nano.a(lib_a-envlock.o)
 .debug_ranges  0x00000000       0x10 c:/program files/microchip/xc32/v2.41/bin/bin/../../lib/gcc/pic32c/6.2.1/../../../../pic32c/lib\libc_nano.a(lib_a-envlock.o)
 .debug_line    0x00000000      0x202 c:/program files/microchip/xc32/v2.41/bin/bin/../../lib/gcc/pic32c/6.2.1/../../../../pic32c/lib\libc_nano.a(lib_a-envlock.o)
 .debug_str     0x00000000        0x9 c:/program files/microchip/xc32/v2.41/bin/bin/../../lib/gcc/pic32c/6.2.1/../../../../pic32c/lib\libc_nano.a(lib_a-envlock.o)
 .comment       0x00000000       0x3d c:/program files/microchip/xc32/v2.41/bin/bin/../../lib/gcc/pic32c/6.2.1/../../../../pic32c/lib\libc_nano.a(lib_a-envlock.o)
 .debug_frame   0x00000000       0x30 c:/program files/microchip/xc32/v2.41/bin/bin/../../lib/gcc/pic32c/6.2.1/../../../../pic32c/lib\libc_nano.a(lib_a-envlock.o)
 .ARM.attributes
                0x00000000       0x2c c:/program files/microchip/xc32/v2.41/bin/bin/../../lib/gcc/pic32c/6.2.1/../../../../pic32c/lib\libc_nano.a(lib_a-envlock.o)
 .text          0x00000000        0x0 c:/program files/microchip/xc32/v2.41/bin/bin/../../lib/gcc/pic32c/6.2.1/../../../../pic32c/lib\libc_nano.a(lib_a-fflush.o)
 .data          0x00000000        0x0 c:/program files/microchip/xc32/v2.41/bin/bin/../../lib/gcc/pic32c/6.2.1/../../../../pic32c/lib\libc_nano.a(lib_a-fflush.o)
 .bss           0x00000000        0x0 c:/program files/microchip/xc32/v2.41/bin/bin/../../lib/gcc/pic32c/6.2.1/../../../../pic32c/lib\libc_nano.a(lib_a-fflush.o)
 .text.__sflush_r
                0x00000000      0x114 c:/program files/microchip/xc32/v2.41/bin/bin/../../lib/gcc/pic32c/6.2.1/../../../../pic32c/lib\libc_nano.a(lib_a-fflush.o)
 .text._fflush_r
                0x00000000       0x58 c:/program files/microchip/xc32/v2.41/bin/bin/../../lib/gcc/pic32c/6.2.1/../../../../pic32c/lib\libc_nano.a(lib_a-fflush.o)
 .text.fflush   0x00000000       0x28 c:/program files/microchip/xc32/v2.41/bin/bin/../../lib/gcc/pic32c/6.2.1/../../../../pic32c/lib\libc_nano.a(lib_a-fflush.o)
 .debug_info    0x00000000     0x1298 c:/program files/microchip/xc32/v2.41/bin/bin/../../lib/gcc/pic32c/6.2.1/../../../../pic32c/lib\libc_nano.a(lib_a-fflush.o)
 .debug_abbrev  0x00000000      0x263 c:/program files/microchip/xc32/v2.41/bin/bin/../../lib/gcc/pic32c/6.2.1/../../../../pic32c/lib\libc_nano.a(lib_a-fflush.o)
 .debug_loc     0x00000000      0x30b c:/program files/microchip/xc32/v2.41/bin/bin/../../lib/gcc/pic32c/6.2.1/../../../../pic32c/lib\libc_nano.a(lib_a-fflush.o)
 .debug_aranges
                0x00000000       0x30 c:/program files/microchip/xc32/v2.41/bin/bin/../../lib/gcc/pic32c/6.2.1/../../../../pic32c/lib\libc_nano.a(lib_a-fflush.o)
 .debug_ranges  0x00000000       0x68 c:/program files/microchip/xc32/v2.41/bin/bin/../../lib/gcc/pic32c/6.2.1/../../../../pic32c/lib\libc_nano.a(lib_a-fflush.o)
 .debug_line    0x00000000      0x2d3 c:/program files/microchip/xc32/v2.41/bin/bin/../../lib/gcc/pic32c/6.2.1/../../../../pic32c/lib\libc_nano.a(lib_a-fflush.o)
 .debug_str     0x00000000       0x16 c:/program files/microchip/xc32/v2.41/bin/bin/../../lib/gcc/pic32c/6.2.1/../../../../pic32c/lib\libc_nano.a(lib_a-fflush.o)
 .comment       0x00000000       0x3d c:/program files/microchip/xc32/v2.41/bin/bin/../../lib/gcc/pic32c/6.2.1/../../../../pic32c/lib\libc_nano.a(lib_a-fflush.o)
 .debug_frame   0x00000000       0x68 c:/program files/microchip/xc32/v2.41/bin/bin/../../lib/gcc/pic32c/6.2.1/../../../../pic32c/lib\libc_nano.a(lib_a-fflush.o)
 .ARM.attributes
                0x00000000       0x2c c:/program files/microchip/xc32/v2.41/bin/bin/../../lib/gcc/pic32c/6.2.1/../../../../pic32c/lib\libc_nano.a(lib_a-fflush.o)
 .text          0x00000000        0x0 c:/program files/microchip/xc32/v2.41/bin/bin/../../lib/gcc/pic32c/6.2.1/../../../../pic32c/lib\libc_nano.a(lib_a-findfp.o)
 .data          0x00000000        0x0 c:/program files/microchip/xc32/v2.41/bin/bin/../../lib/gcc/pic32c/6.2.1/../../../../pic32c/lib\libc_nano.a(lib_a-findfp.o)
 .bss           0x00000000        0x0 c:/program files/microchip/xc32/v2.41/bin/bin/../../lib/gcc/pic32c/6.2.1/../../../../pic32c/lib\libc_nano.a(lib_a-findfp.o)
 .text._cleanup_r
                0x00000000       0x10 c:/program files/microchip/xc32/v2.41/bin/bin/../../lib/gcc/pic32c/6.2.1/../../../../pic32c/lib\libc_nano.a(lib_a-findfp.o)
 .text.std.isra.0
                0x00000000       0x48 c:/program files/microchip/xc32/v2.41/bin/bin/../../lib/gcc/pic32c/6.2.1/../../../../pic32c/lib\libc_nano.a(lib_a-findfp.o)
 .text.__sfmoreglue
                0x00000000       0x2c c:/program files/microchip/xc32/v2.41/bin/bin/../../lib/gcc/pic32c/6.2.1/../../../../pic32c/lib\libc_nano.a(lib_a-findfp.o)
 .text._cleanup
                0x00000000       0x10 c:/program files/microchip/xc32/v2.41/bin/bin/../../lib/gcc/pic32c/6.2.1/../../../../pic32c/lib\libc_nano.a(lib_a-findfp.o)
 .text.__sinit  0x00000000       0x68 c:/program files/microchip/xc32/v2.41/bin/bin/../../lib/gcc/pic32c/6.2.1/../../../../pic32c/lib\libc_nano.a(lib_a-findfp.o)
 .text.__sfp    0x00000000       0x80 c:/program files/microchip/xc32/v2.41/bin/bin/../../lib/gcc/pic32c/6.2.1/../../../../pic32c/lib\libc_nano.a(lib_a-findfp.o)
 .rodata.__sf_fake_stderr
                0x00000000       0x20 c:/program files/microchip/xc32/v2.41/bin/bin/../../lib/gcc/pic32c/6.2.1/../../../../pic32c/lib\libc_nano.a(lib_a-findfp.o)
 .rodata.__sf_fake_stdin
                0x00000000       0x20 c:/program files/microchip/xc32/v2.41/bin/bin/../../lib/gcc/pic32c/6.2.1/../../../../pic32c/lib\libc_nano.a(lib_a-findfp.o)
 .rodata.__sf_fake_stdout
                0x00000000       0x20 c:/program files/microchip/xc32/v2.41/bin/bin/../../lib/gcc/pic32c/6.2.1/../../../../pic32c/lib\libc_nano.a(lib_a-findfp.o)
 .debug_info    0x00000000     0x1470 c:/program files/microchip/xc32/v2.41/bin/bin/../../lib/gcc/pic32c/6.2.1/../../../../pic32c/lib\libc_nano.a(lib_a-findfp.o)
 .debug_abbrev  0x00000000      0x295 c:/program files/microchip/xc32/v2.41/bin/bin/../../lib/gcc/pic32c/6.2.1/../../../../pic32c/lib\libc_nano.a(lib_a-findfp.o)
 .debug_loc     0x00000000      0x2b8 c:/program files/microchip/xc32/v2.41/bin/bin/../../lib/gcc/pic32c/6.2.1/../../../../pic32c/lib\libc_nano.a(lib_a-findfp.o)
 .debug_aranges
                0x00000000       0x48 c:/program files/microchip/xc32/v2.41/bin/bin/../../lib/gcc/pic32c/6.2.1/../../../../pic32c/lib\libc_nano.a(lib_a-findfp.o)
 .debug_ranges  0x00000000       0x38 c:/program files/microchip/xc32/v2.41/bin/bin/../../lib/gcc/pic32c/6.2.1/../../../../pic32c/lib\libc_nano.a(lib_a-findfp.o)
 .debug_line    0x00000000      0x315 c:/program files/microchip/xc32/v2.41/bin/bin/../../lib/gcc/pic32c/6.2.1/../../../../pic32c/lib\libc_nano.a(lib_a-findfp.o)
 .debug_str     0x00000000       0x20 c:/program files/microchip/xc32/v2.41/bin/bin/../../lib/gcc/pic32c/6.2.1/../../../../pic32c/lib\libc_nano.a(lib_a-findfp.o)
 .comment       0x00000000       0x3d c:/program files/microchip/xc32/v2.41/bin/bin/../../lib/gcc/pic32c/6.2.1/../../../../pic32c/lib\libc_nano.a(lib_a-findfp.o)
 .debug_frame   0x00000000       0xb0 c:/program files/microchip/xc32/v2.41/bin/bin/../../lib/gcc/pic32c/6.2.1/../../../../pic32c/lib\libc_nano.a(lib_a-findfp.o)
 .ARM.attributes
                0x00000000       0x2c c:/program files/microchip/xc32/v2.41/bin/bin/../../lib/gcc/pic32c/6.2.1/../../../../pic32c/lib\libc_nano.a(lib_a-findfp.o)
 .text          0x00000000        0x0 c:/program files/microchip/xc32/v2.41/bin/bin/../../lib/gcc/pic32c/6.2.1/../../../../pic32c/lib\libc_nano.a(lib_a-fputwc.o)
 .data          0x00000000        0x0 c:/program files/microchip/xc32/v2.41/bin/bin/../../lib/gcc/pic32c/6.2.1/../../../../pic32c/lib\libc_nano.a(lib_a-fputwc.o)
 .bss           0x00000000        0x0 c:/program files/microchip/xc32/v2.41/bin/bin/../../lib/gcc/pic32c/6.2.1/../../../../pic32c/lib\libc_nano.a(lib_a-fputwc.o)
 .text.__fputwc
                0x00000000       0x7c c:/program files/microchip/xc32/v2.41/bin/bin/../../lib/gcc/pic32c/6.2.1/../../../../pic32c/lib\libc_nano.a(lib_a-fputwc.o)
 .text._fputwc_r
                0x00000000       0x1e c:/program files/microchip/xc32/v2.41/bin/bin/../../lib/gcc/pic32c/6.2.1/../../../../pic32c/lib\libc_nano.a(lib_a-fputwc.o)
 .text.fputwc   0x00000000       0x54 c:/program files/microchip/xc32/v2.41/bin/bin/../../lib/gcc/pic32c/6.2.1/../../../../pic32c/lib\libc_nano.a(lib_a-fputwc.o)
 .debug_info    0x00000000     0x12ea c:/program files/microchip/xc32/v2.41/bin/bin/../../lib/gcc/pic32c/6.2.1/../../../../pic32c/lib\libc_nano.a(lib_a-fputwc.o)
 .debug_abbrev  0x00000000      0x233 c:/program files/microchip/xc32/v2.41/bin/bin/../../lib/gcc/pic32c/6.2.1/../../../../pic32c/lib\libc_nano.a(lib_a-fputwc.o)
 .debug_loc     0x00000000      0x2ac c:/program files/microchip/xc32/v2.41/bin/bin/../../lib/gcc/pic32c/6.2.1/../../../../pic32c/lib\libc_nano.a(lib_a-fputwc.o)
 .debug_aranges
                0x00000000       0x30 c:/program files/microchip/xc32/v2.41/bin/bin/../../lib/gcc/pic32c/6.2.1/../../../../pic32c/lib\libc_nano.a(lib_a-fputwc.o)
 .debug_ranges  0x00000000       0x50 c:/program files/microchip/xc32/v2.41/bin/bin/../../lib/gcc/pic32c/6.2.1/../../../../pic32c/lib\libc_nano.a(lib_a-fputwc.o)
 .debug_line    0x00000000      0x2a0 c:/program files/microchip/xc32/v2.41/bin/bin/../../lib/gcc/pic32c/6.2.1/../../../../pic32c/lib\libc_nano.a(lib_a-fputwc.o)
 .debug_str     0x00000000       0x32 c:/program files/microchip/xc32/v2.41/bin/bin/../../lib/gcc/pic32c/6.2.1/../../../../pic32c/lib\libc_nano.a(lib_a-fputwc.o)
 .comment       0x00000000       0x3d c:/program files/microchip/xc32/v2.41/bin/bin/../../lib/gcc/pic32c/6.2.1/../../../../pic32c/lib\libc_nano.a(lib_a-fputwc.o)
 .debug_frame   0x00000000       0x64 c:/program files/microchip/xc32/v2.41/bin/bin/../../lib/gcc/pic32c/6.2.1/../../../../pic32c/lib\libc_nano.a(lib_a-fputwc.o)
 .ARM.attributes
                0x00000000       0x2c c:/program files/microchip/xc32/v2.41/bin/bin/../../lib/gcc/pic32c/6.2.1/../../../../pic32c/lib\libc_nano.a(lib_a-fputwc.o)
 .text          0x00000000        0x0 c:/program files/microchip/xc32/v2.41/bin/bin/../../lib/gcc/pic32c/6.2.1/../../../../pic32c/lib\libc_nano.a(lib_a-fwalk.o)
 .data          0x00000000        0x0 c:/program files/microchip/xc32/v2.41/bin/bin/../../lib/gcc/pic32c/6.2.1/../../../../pic32c/lib\libc_nano.a(lib_a-fwalk.o)
 .bss           0x00000000        0x0 c:/program files/microchip/xc32/v2.41/bin/bin/../../lib/gcc/pic32c/6.2.1/../../../../pic32c/lib\libc_nano.a(lib_a-fwalk.o)
 .text._fwalk   0x00000000       0x38 c:/program files/microchip/xc32/v2.41/bin/bin/../../lib/gcc/pic32c/6.2.1/../../../../pic32c/lib\libc_nano.a(lib_a-fwalk.o)
 .text._fwalk_reent
                0x00000000       0x42 c:/program files/microchip/xc32/v2.41/bin/bin/../../lib/gcc/pic32c/6.2.1/../../../../pic32c/lib\libc_nano.a(lib_a-fwalk.o)
 .debug_info    0x00000000     0x11a9 c:/program files/microchip/xc32/v2.41/bin/bin/../../lib/gcc/pic32c/6.2.1/../../../../pic32c/lib\libc_nano.a(lib_a-fwalk.o)
 .debug_abbrev  0x00000000      0x1b0 c:/program files/microchip/xc32/v2.41/bin/bin/../../lib/gcc/pic32c/6.2.1/../../../../pic32c/lib\libc_nano.a(lib_a-fwalk.o)
 .debug_loc     0x00000000      0x1d9 c:/program files/microchip/xc32/v2.41/bin/bin/../../lib/gcc/pic32c/6.2.1/../../../../pic32c/lib\libc_nano.a(lib_a-fwalk.o)
 .debug_aranges
                0x00000000       0x28 c:/program files/microchip/xc32/v2.41/bin/bin/../../lib/gcc/pic32c/6.2.1/../../../../pic32c/lib\libc_nano.a(lib_a-fwalk.o)
 .debug_ranges  0x00000000       0x18 c:/program files/microchip/xc32/v2.41/bin/bin/../../lib/gcc/pic32c/6.2.1/../../../../pic32c/lib\libc_nano.a(lib_a-fwalk.o)
 .debug_line    0x00000000      0x269 c:/program files/microchip/xc32/v2.41/bin/bin/../../lib/gcc/pic32c/6.2.1/../../../../pic32c/lib\libc_nano.a(lib_a-fwalk.o)
 .debug_str     0x00000000        0x9 c:/program files/microchip/xc32/v2.41/bin/bin/../../lib/gcc/pic32c/6.2.1/../../../../pic32c/lib\libc_nano.a(lib_a-fwalk.o)
 .comment       0x00000000       0x3d c:/program files/microchip/xc32/v2.41/bin/bin/../../lib/gcc/pic32c/6.2.1/../../../../pic32c/lib\libc_nano.a(lib_a-fwalk.o)
 .debug_frame   0x00000000       0x58 c:/program files/microchip/xc32/v2.41/bin/bin/../../lib/gcc/pic32c/6.2.1/../../../../pic32c/lib\libc_nano.a(lib_a-fwalk.o)
 .ARM.attributes
                0x00000000       0x2c c:/program files/microchip/xc32/v2.41/bin/bin/../../lib/gcc/pic32c/6.2.1/../../../../pic32c/lib\libc_nano.a(lib_a-fwalk.o)
 .text          0x00000000        0x0 c:/program files/microchip/xc32/v2.41/bin/bin/../../lib/gcc/pic32c/6.2.1/../../../../pic32c/lib\libc_nano.a(lib_a-locale.o)
 .data          0x00000000        0x0 c:/program files/microchip/xc32/v2.41/bin/bin/../../lib/gcc/pic32c/6.2.1/../../../../pic32c/lib\libc_nano.a(lib_a-locale.o)
 .bss           0x00000000        0x0 c:/program files/microchip/xc32/v2.41/bin/bin/../../lib/gcc/pic32c/6.2.1/../../../../pic32c/lib\libc_nano.a(lib_a-locale.o)
 .text._setlocale_r
                0x00000000       0x3c c:/program files/microchip/xc32/v2.41/bin/bin/../../lib/gcc/pic32c/6.2.1/../../../../pic32c/lib\libc_nano.a(lib_a-locale.o)
 .text.__locale_mb_cur_max
                0x00000000       0x1c c:/program files/microchip/xc32/v2.41/bin/bin/../../lib/gcc/pic32c/6.2.1/../../../../pic32c/lib\libc_nano.a(lib_a-locale.o)
 .text.__locale_ctype_ptr_l
                0x00000000        0x6 c:/program files/microchip/xc32/v2.41/bin/bin/../../lib/gcc/pic32c/6.2.1/../../../../pic32c/lib\libc_nano.a(lib_a-locale.o)
 .text.__locale_ctype_ptr
                0x00000000       0x1c c:/program files/microchip/xc32/v2.41/bin/bin/../../lib/gcc/pic32c/6.2.1/../../../../pic32c/lib\libc_nano.a(lib_a-locale.o)
 .text.setlocale
                0x00000000       0x14 c:/program files/microchip/xc32/v2.41/bin/bin/../../lib/gcc/pic32c/6.2.1/../../../../pic32c/lib\libc_nano.a(lib_a-locale.o)
 .rodata        0x00000000        0xb c:/program files/microchip/xc32/v2.41/bin/bin/../../lib/gcc/pic32c/6.2.1/../../../../pic32c/lib\libc_nano.a(lib_a-locale.o)
 .bss._PathLocale
                0x00000000        0x4 c:/program files/microchip/xc32/v2.41/bin/bin/../../lib/gcc/pic32c/6.2.1/../../../../pic32c/lib\libc_nano.a(lib_a-locale.o)
 .data.__global_locale
                0x00000000      0x16c c:/program files/microchip/xc32/v2.41/bin/bin/../../lib/gcc/pic32c/6.2.1/../../../../pic32c/lib\libc_nano.a(lib_a-locale.o)
 .debug_info    0x00000000     0x17cf c:/program files/microchip/xc32/v2.41/bin/bin/../../lib/gcc/pic32c/6.2.1/../../../../pic32c/lib\libc_nano.a(lib_a-locale.o)
 .debug_abbrev  0x00000000      0x264 c:/program files/microchip/xc32/v2.41/bin/bin/../../lib/gcc/pic32c/6.2.1/../../../../pic32c/lib\libc_nano.a(lib_a-locale.o)
 .debug_loc     0x00000000      0x174 c:/program files/microchip/xc32/v2.41/bin/bin/../../lib/gcc/pic32c/6.2.1/../../../../pic32c/lib\libc_nano.a(lib_a-locale.o)
 .debug_aranges
                0x00000000       0x40 c:/program files/microchip/xc32/v2.41/bin/bin/../../lib/gcc/pic32c/6.2.1/../../../../pic32c/lib\libc_nano.a(lib_a-locale.o)
 .debug_ranges  0x00000000       0x30 c:/program files/microchip/xc32/v2.41/bin/bin/../../lib/gcc/pic32c/6.2.1/../../../../pic32c/lib\libc_nano.a(lib_a-locale.o)
 .debug_line    0x00000000      0x32f c:/program files/microchip/xc32/v2.41/bin/bin/../../lib/gcc/pic32c/6.2.1/../../../../pic32c/lib\libc_nano.a(lib_a-locale.o)
 .debug_str     0x00000000      0x134 c:/program files/microchip/xc32/v2.41/bin/bin/../../lib/gcc/pic32c/6.2.1/../../../../pic32c/lib\libc_nano.a(lib_a-locale.o)
 .comment       0x00000000       0x3d c:/program files/microchip/xc32/v2.41/bin/bin/../../lib/gcc/pic32c/6.2.1/../../../../pic32c/lib\libc_nano.a(lib_a-locale.o)
 .debug_frame   0x00000000       0x74 c:/program files/microchip/xc32/v2.41/bin/bin/../../lib/gcc/pic32c/6.2.1/../../../../pic32c/lib\libc_nano.a(lib_a-locale.o)
 .ARM.attributes
                0x00000000       0x2c c:/program files/microchip/xc32/v2.41/bin/bin/../../lib/gcc/pic32c/6.2.1/../../../../pic32c/lib\libc_nano.a(lib_a-locale.o)
 .text          0x00000000        0x0 c:/program files/microchip/xc32/v2.41/bin/bin/../../lib/gcc/pic32c/6.2.1/../../../../pic32c/lib\libc_nano.a(lib_a-lseekr.o)
 .data          0x00000000        0x0 c:/program files/microchip/xc32/v2.41/bin/bin/../../lib/gcc/pic32c/6.2.1/../../../../pic32c/lib\libc_nano.a(lib_a-lseekr.o)
 .bss           0x00000000        0x0 c:/program files/microchip/xc32/v2.41/bin/bin/../../lib/gcc/pic32c/6.2.1/../../../../pic32c/lib\libc_nano.a(lib_a-lseekr.o)
 .text._lseek_r
                0x00000000       0x28 c:/program files/microchip/xc32/v2.41/bin/bin/../../lib/gcc/pic32c/6.2.1/../../../../pic32c/lib\libc_nano.a(lib_a-lseekr.o)
 .debug_info    0x00000000      0xe32 c:/program files/microchip/xc32/v2.41/bin/bin/../../lib/gcc/pic32c/6.2.1/../../../../pic32c/lib\libc_nano.a(lib_a-lseekr.o)
 .debug_abbrev  0x00000000      0x193 c:/program files/microchip/xc32/v2.41/bin/bin/../../lib/gcc/pic32c/6.2.1/../../../../pic32c/lib\libc_nano.a(lib_a-lseekr.o)
 .debug_loc     0x00000000       0xc5 c:/program files/microchip/xc32/v2.41/bin/bin/../../lib/gcc/pic32c/6.2.1/../../../../pic32c/lib\libc_nano.a(lib_a-lseekr.o)
 .debug_aranges
                0x00000000       0x20 c:/program files/microchip/xc32/v2.41/bin/bin/../../lib/gcc/pic32c/6.2.1/../../../../pic32c/lib\libc_nano.a(lib_a-lseekr.o)
 .debug_ranges  0x00000000       0x10 c:/program files/microchip/xc32/v2.41/bin/bin/../../lib/gcc/pic32c/6.2.1/../../../../pic32c/lib\libc_nano.a(lib_a-lseekr.o)
 .debug_line    0x00000000      0x211 c:/program files/microchip/xc32/v2.41/bin/bin/../../lib/gcc/pic32c/6.2.1/../../../../pic32c/lib\libc_nano.a(lib_a-lseekr.o)
 .debug_str     0x00000000        0x9 c:/program files/microchip/xc32/v2.41/bin/bin/../../lib/gcc/pic32c/6.2.1/../../../../pic32c/lib\libc_nano.a(lib_a-lseekr.o)
 .comment       0x00000000       0x3d c:/program files/microchip/xc32/v2.41/bin/bin/../../lib/gcc/pic32c/6.2.1/../../../../pic32c/lib\libc_nano.a(lib_a-lseekr.o)
 .debug_frame   0x00000000       0x2c c:/program files/microchip/xc32/v2.41/bin/bin/../../lib/gcc/pic32c/6.2.1/../../../../pic32c/lib\libc_nano.a(lib_a-lseekr.o)
 .ARM.attributes
                0x00000000       0x2c c:/program files/microchip/xc32/v2.41/bin/bin/../../lib/gcc/pic32c/6.2.1/../../../../pic32c/lib\libc_nano.a(lib_a-lseekr.o)
 .text          0x00000000        0x0 c:/program files/microchip/xc32/v2.41/bin/bin/../../lib/gcc/pic32c/6.2.1/../../../../pic32c/lib\libc_nano.a(lib_a-makebuf.o)
 .data          0x00000000        0x0 c:/program files/microchip/xc32/v2.41/bin/bin/../../lib/gcc/pic32c/6.2.1/../../../../pic32c/lib\libc_nano.a(lib_a-makebuf.o)
 .bss           0x00000000        0x0 c:/program files/microchip/xc32/v2.41/bin/bin/../../lib/gcc/pic32c/6.2.1/../../../../pic32c/lib\libc_nano.a(lib_a-makebuf.o)
 .text.__swhatbuf_r
                0x00000000       0x50 c:/program files/microchip/xc32/v2.41/bin/bin/../../lib/gcc/pic32c/6.2.1/../../../../pic32c/lib\libc_nano.a(lib_a-makebuf.o)
 .text.__smakebuf_r
                0x00000000       0x7c c:/program files/microchip/xc32/v2.41/bin/bin/../../lib/gcc/pic32c/6.2.1/../../../../pic32c/lib\libc_nano.a(lib_a-makebuf.o)
 .debug_info    0x00000000     0x14e5 c:/program files/microchip/xc32/v2.41/bin/bin/../../lib/gcc/pic32c/6.2.1/../../../../pic32c/lib\libc_nano.a(lib_a-makebuf.o)
 .debug_abbrev  0x00000000      0x268 c:/program files/microchip/xc32/v2.41/bin/bin/../../lib/gcc/pic32c/6.2.1/../../../../pic32c/lib\libc_nano.a(lib_a-makebuf.o)
 .debug_loc     0x00000000      0x260 c:/program files/microchip/xc32/v2.41/bin/bin/../../lib/gcc/pic32c/6.2.1/../../../../pic32c/lib\libc_nano.a(lib_a-makebuf.o)
 .debug_aranges
                0x00000000       0x28 c:/program files/microchip/xc32/v2.41/bin/bin/../../lib/gcc/pic32c/6.2.1/../../../../pic32c/lib\libc_nano.a(lib_a-makebuf.o)
 .debug_ranges  0x00000000       0x30 c:/program files/microchip/xc32/v2.41/bin/bin/../../lib/gcc/pic32c/6.2.1/../../../../pic32c/lib\libc_nano.a(lib_a-makebuf.o)
 .debug_line    0x00000000      0x328 c:/program files/microchip/xc32/v2.41/bin/bin/../../lib/gcc/pic32c/6.2.1/../../../../pic32c/lib\libc_nano.a(lib_a-makebuf.o)
 .debug_str     0x00000000       0x31 c:/program files/microchip/xc32/v2.41/bin/bin/../../lib/gcc/pic32c/6.2.1/../../../../pic32c/lib\libc_nano.a(lib_a-makebuf.o)
 .comment       0x00000000       0x3d c:/program files/microchip/xc32/v2.41/bin/bin/../../lib/gcc/pic32c/6.2.1/../../../../pic32c/lib\libc_nano.a(lib_a-makebuf.o)
 .debug_frame   0x00000000       0x54 c:/program files/microchip/xc32/v2.41/bin/bin/../../lib/gcc/pic32c/6.2.1/../../../../pic32c/lib\libc_nano.a(lib_a-makebuf.o)
 .ARM.attributes
                0x00000000       0x2c c:/program files/microchip/xc32/v2.41/bin/bin/../../lib/gcc/pic32c/6.2.1/../../../../pic32c/lib\libc_nano.a(lib_a-makebuf.o)
 .text          0x00000000        0x0 c:/program files/microchip/xc32/v2.41/bin/bin/../../lib/gcc/pic32c/6.2.1/../../../../pic32c/lib\libc_nano.a(lib_a-mbtowc_r.o)
 .data          0x00000000        0x0 c:/program files/microchip/xc32/v2.41/bin/bin/../../lib/gcc/pic32c/6.2.1/../../../../pic32c/lib\libc_nano.a(lib_a-mbtowc_r.o)
 .bss           0x00000000        0x0 c:/program files/microchip/xc32/v2.41/bin/bin/../../lib/gcc/pic32c/6.2.1/../../../../pic32c/lib\libc_nano.a(lib_a-mbtowc_r.o)
 .text._mbtowc_r
                0x00000000       0x24 c:/program files/microchip/xc32/v2.41/bin/bin/../../lib/gcc/pic32c/6.2.1/../../../../pic32c/lib\libc_nano.a(lib_a-mbtowc_r.o)
 .text.__ascii_mbtowc
                0x00000000       0x24 c:/program files/microchip/xc32/v2.41/bin/bin/../../lib/gcc/pic32c/6.2.1/../../../../pic32c/lib\libc_nano.a(lib_a-mbtowc_r.o)
 .debug_info    0x00000000     0x16a8 c:/program files/microchip/xc32/v2.41/bin/bin/../../lib/gcc/pic32c/6.2.1/../../../../pic32c/lib\libc_nano.a(lib_a-mbtowc_r.o)
 .debug_abbrev  0x00000000      0x1cd c:/program files/microchip/xc32/v2.41/bin/bin/../../lib/gcc/pic32c/6.2.1/../../../../pic32c/lib\libc_nano.a(lib_a-mbtowc_r.o)
 .debug_loc     0x00000000      0x19a c:/program files/microchip/xc32/v2.41/bin/bin/../../lib/gcc/pic32c/6.2.1/../../../../pic32c/lib\libc_nano.a(lib_a-mbtowc_r.o)
 .debug_aranges
                0x00000000       0x28 c:/program files/microchip/xc32/v2.41/bin/bin/../../lib/gcc/pic32c/6.2.1/../../../../pic32c/lib\libc_nano.a(lib_a-mbtowc_r.o)
 .debug_ranges  0x00000000       0x18 c:/program files/microchip/xc32/v2.41/bin/bin/../../lib/gcc/pic32c/6.2.1/../../../../pic32c/lib\libc_nano.a(lib_a-mbtowc_r.o)
 .debug_line    0x00000000      0x2d9 c:/program files/microchip/xc32/v2.41/bin/bin/../../lib/gcc/pic32c/6.2.1/../../../../pic32c/lib\libc_nano.a(lib_a-mbtowc_r.o)
 .debug_str     0x00000000      0x114 c:/program files/microchip/xc32/v2.41/bin/bin/../../lib/gcc/pic32c/6.2.1/../../../../pic32c/lib\libc_nano.a(lib_a-mbtowc_r.o)
 .comment       0x00000000       0x3d c:/program files/microchip/xc32/v2.41/bin/bin/../../lib/gcc/pic32c/6.2.1/../../../../pic32c/lib\libc_nano.a(lib_a-mbtowc_r.o)
 .debug_frame   0x00000000       0x44 c:/program files/microchip/xc32/v2.41/bin/bin/../../lib/gcc/pic32c/6.2.1/../../../../pic32c/lib\libc_nano.a(lib_a-mbtowc_r.o)
 .ARM.attributes
                0x00000000       0x2c c:/program files/microchip/xc32/v2.41/bin/bin/../../lib/gcc/pic32c/6.2.1/../../../../pic32c/lib\libc_nano.a(lib_a-mbtowc_r.o)
 .text          0x00000000        0x0 c:/program files/microchip/xc32/v2.41/bin/bin/../../lib/gcc/pic32c/6.2.1/../../../../pic32c/lib\libc_nano.a(lib_a-memchr-stub.o)
 .data          0x00000000        0x0 c:/program files/microchip/xc32/v2.41/bin/bin/../../lib/gcc/pic32c/6.2.1/../../../../pic32c/lib\libc_nano.a(lib_a-memchr-stub.o)
 .bss           0x00000000        0x0 c:/program files/microchip/xc32/v2.41/bin/bin/../../lib/gcc/pic32c/6.2.1/../../../../pic32c/lib\libc_nano.a(lib_a-memchr-stub.o)
 .text.memchr   0x00000000       0x16 c:/program files/microchip/xc32/v2.41/bin/bin/../../lib/gcc/pic32c/6.2.1/../../../../pic32c/lib\libc_nano.a(lib_a-memchr-stub.o)
 .debug_info    0x00000000      0xdb2 c:/program files/microchip/xc32/v2.41/bin/bin/../../lib/gcc/pic32c/6.2.1/../../../../pic32c/lib\libc_nano.a(lib_a-memchr-stub.o)
 .debug_abbrev  0x00000000      0x16d c:/program files/microchip/xc32/v2.41/bin/bin/../../lib/gcc/pic32c/6.2.1/../../../../pic32c/lib\libc_nano.a(lib_a-memchr-stub.o)
 .debug_loc     0x00000000       0xb4 c:/program files/microchip/xc32/v2.41/bin/bin/../../lib/gcc/pic32c/6.2.1/../../../../pic32c/lib\libc_nano.a(lib_a-memchr-stub.o)
 .debug_aranges
                0x00000000       0x20 c:/program files/microchip/xc32/v2.41/bin/bin/../../lib/gcc/pic32c/6.2.1/../../../../pic32c/lib\libc_nano.a(lib_a-memchr-stub.o)
 .debug_ranges  0x00000000       0x10 c:/program files/microchip/xc32/v2.41/bin/bin/../../lib/gcc/pic32c/6.2.1/../../../../pic32c/lib\libc_nano.a(lib_a-memchr-stub.o)
 .debug_line    0x00000000      0x21c c:/program files/microchip/xc32/v2.41/bin/bin/../../lib/gcc/pic32c/6.2.1/../../../../pic32c/lib\libc_nano.a(lib_a-memchr-stub.o)
 .debug_str     0x00000000        0x9 c:/program files/microchip/xc32/v2.41/bin/bin/../../lib/gcc/pic32c/6.2.1/../../../../pic32c/lib\libc_nano.a(lib_a-memchr-stub.o)
 .comment       0x00000000       0x3d c:/program files/microchip/xc32/v2.41/bin/bin/../../lib/gcc/pic32c/6.2.1/../../../../pic32c/lib\libc_nano.a(lib_a-memchr-stub.o)
 .debug_frame   0x00000000       0x20 c:/program files/microchip/xc32/v2.41/bin/bin/../../lib/gcc/pic32c/6.2.1/../../../../pic32c/lib\libc_nano.a(lib_a-memchr-stub.o)
 .ARM.attributes
                0x00000000       0x2c c:/program files/microchip/xc32/v2.41/bin/bin/../../lib/gcc/pic32c/6.2.1/../../../../pic32c/lib\libc_nano.a(lib_a-memchr-stub.o)
 .text          0x00000000        0x0 c:/program files/microchip/xc32/v2.41/bin/bin/../../lib/gcc/pic32c/6.2.1/../../../../pic32c/lib\libc_nano.a(lib_a-nano-svfscanf.o)
 .data          0x00000000        0x0 c:/program files/microchip/xc32/v2.41/bin/bin/../../lib/gcc/pic32c/6.2.1/../../../../pic32c/lib\libc_nano.a(lib_a-nano-svfscanf.o)
 .bss           0x00000000        0x0 c:/program files/microchip/xc32/v2.41/bin/bin/../../lib/gcc/pic32c/6.2.1/../../../../pic32c/lib\libc_nano.a(lib_a-nano-svfscanf.o)
 .text._sungetc_r
                0x00000000       0x78 c:/program files/microchip/xc32/v2.41/bin/bin/../../lib/gcc/pic32c/6.2.1/../../../../pic32c/lib\libc_nano.a(lib_a-nano-svfscanf.o)
 .text.__ssrefill_r
                0x00000000       0x3e c:/program files/microchip/xc32/v2.41/bin/bin/../../lib/gcc/pic32c/6.2.1/../../../../pic32c/lib\libc_nano.a(lib_a-nano-svfscanf.o)
 .text.__ssvfscanf_r
                0x00000000      0x304 c:/program files/microchip/xc32/v2.41/bin/bin/../../lib/gcc/pic32c/6.2.1/../../../../pic32c/lib\libc_nano.a(lib_a-nano-svfscanf.o)
 .rodata        0x00000000        0x4 c:/program files/microchip/xc32/v2.41/bin/bin/../../lib/gcc/pic32c/6.2.1/../../../../pic32c/lib\libc_nano.a(lib_a-nano-svfscanf.o)
 .debug_info    0x00000000     0x1de8 c:/program files/microchip/xc32/v2.41/bin/bin/../../lib/gcc/pic32c/6.2.1/../../../../pic32c/lib\libc_nano.a(lib_a-nano-svfscanf.o)
 .debug_abbrev  0x00000000      0x2ce c:/program files/microchip/xc32/v2.41/bin/bin/../../lib/gcc/pic32c/6.2.1/../../../../pic32c/lib\libc_nano.a(lib_a-nano-svfscanf.o)
 .debug_loc     0x00000000      0x4e9 c:/program files/microchip/xc32/v2.41/bin/bin/../../lib/gcc/pic32c/6.2.1/../../../../pic32c/lib\libc_nano.a(lib_a-nano-svfscanf.o)
 .debug_aranges
                0x00000000       0x30 c:/program files/microchip/xc32/v2.41/bin/bin/../../lib/gcc/pic32c/6.2.1/../../../../pic32c/lib\libc_nano.a(lib_a-nano-svfscanf.o)
 .debug_ranges  0x00000000       0x20 c:/program files/microchip/xc32/v2.41/bin/bin/../../lib/gcc/pic32c/6.2.1/../../../../pic32c/lib\libc_nano.a(lib_a-nano-svfscanf.o)
 .debug_line    0x00000000      0x4b3 c:/program files/microchip/xc32/v2.41/bin/bin/../../lib/gcc/pic32c/6.2.1/../../../../pic32c/lib\libc_nano.a(lib_a-nano-svfscanf.o)
 .debug_str     0x00000000      0x154 c:/program files/microchip/xc32/v2.41/bin/bin/../../lib/gcc/pic32c/6.2.1/../../../../pic32c/lib\libc_nano.a(lib_a-nano-svfscanf.o)
 .comment       0x00000000       0x3d c:/program files/microchip/xc32/v2.41/bin/bin/../../lib/gcc/pic32c/6.2.1/../../../../pic32c/lib\libc_nano.a(lib_a-nano-svfscanf.o)
 .debug_frame   0x00000000       0x68 c:/program files/microchip/xc32/v2.41/bin/bin/../../lib/gcc/pic32c/6.2.1/../../../../pic32c/lib\libc_nano.a(lib_a-nano-svfscanf.o)
 .ARM.attributes
                0x00000000       0x2c c:/program files/microchip/xc32/v2.41/bin/bin/../../lib/gcc/pic32c/6.2.1/../../../../pic32c/lib\libc_nano.a(lib_a-nano-svfscanf.o)
 .text          0x00000000        0x0 c:/program files/microchip/xc32/v2.41/bin/bin/../../lib/gcc/pic32c/6.2.1/../../../../pic32c/lib\libc_nano.a(lib_a-nano-vfscanf_i.o)
 .data          0x00000000        0x0 c:/program files/microchip/xc32/v2.41/bin/bin/../../lib/gcc/pic32c/6.2.1/../../../../pic32c/lib\libc_nano.a(lib_a-nano-vfscanf_i.o)
 .bss           0x00000000        0x0 c:/program files/microchip/xc32/v2.41/bin/bin/../../lib/gcc/pic32c/6.2.1/../../../../pic32c/lib\libc_nano.a(lib_a-nano-vfscanf_i.o)
 .text._scanf_chars
                0x00000000       0xc6 c:/program files/microchip/xc32/v2.41/bin/bin/../../lib/gcc/pic32c/6.2.1/../../../../pic32c/lib\libc_nano.a(lib_a-nano-vfscanf_i.o)
 .text._scanf_i
                0x00000000      0x1f4 c:/program files/microchip/xc32/v2.41/bin/bin/../../lib/gcc/pic32c/6.2.1/../../../../pic32c/lib\libc_nano.a(lib_a-nano-vfscanf_i.o)
 .rodata        0x00000000       0x28 c:/program files/microchip/xc32/v2.41/bin/bin/../../lib/gcc/pic32c/6.2.1/../../../../pic32c/lib\libc_nano.a(lib_a-nano-vfscanf_i.o)
 .debug_info    0x00000000     0x1c75 c:/program files/microchip/xc32/v2.41/bin/bin/../../lib/gcc/pic32c/6.2.1/../../../../pic32c/lib\libc_nano.a(lib_a-nano-vfscanf_i.o)
 .debug_abbrev  0x00000000      0x24b c:/program files/microchip/xc32/v2.41/bin/bin/../../lib/gcc/pic32c/6.2.1/../../../../pic32c/lib\libc_nano.a(lib_a-nano-vfscanf_i.o)
 .debug_loc     0x00000000      0x485 c:/program files/microchip/xc32/v2.41/bin/bin/../../lib/gcc/pic32c/6.2.1/../../../../pic32c/lib\libc_nano.a(lib_a-nano-vfscanf_i.o)
 .debug_aranges
                0x00000000       0x28 c:/program files/microchip/xc32/v2.41/bin/bin/../../lib/gcc/pic32c/6.2.1/../../../../pic32c/lib\libc_nano.a(lib_a-nano-vfscanf_i.o)
 .debug_ranges  0x00000000       0x30 c:/program files/microchip/xc32/v2.41/bin/bin/../../lib/gcc/pic32c/6.2.1/../../../../pic32c/lib\libc_nano.a(lib_a-nano-vfscanf_i.o)
 .debug_line    0x00000000      0x4eb c:/program files/microchip/xc32/v2.41/bin/bin/../../lib/gcc/pic32c/6.2.1/../../../../pic32c/lib\libc_nano.a(lib_a-nano-vfscanf_i.o)
 .debug_str     0x00000000      0x127 c:/program files/microchip/xc32/v2.41/bin/bin/../../lib/gcc/pic32c/6.2.1/../../../../pic32c/lib\libc_nano.a(lib_a-nano-vfscanf_i.o)
 .comment       0x00000000       0x3d c:/program files/microchip/xc32/v2.41/bin/bin/../../lib/gcc/pic32c/6.2.1/../../../../pic32c/lib\libc_nano.a(lib_a-nano-vfscanf_i.o)
 .debug_frame   0x00000000       0x54 c:/program files/microchip/xc32/v2.41/bin/bin/../../lib/gcc/pic32c/6.2.1/../../../../pic32c/lib\libc_nano.a(lib_a-nano-vfscanf_i.o)
 .ARM.attributes
                0x00000000       0x2c c:/program files/microchip/xc32/v2.41/bin/bin/../../lib/gcc/pic32c/6.2.1/../../../../pic32c/lib\libc_nano.a(lib_a-nano-vfscanf_i.o)
 .text          0x00000000        0x0 c:/program files/microchip/xc32/v2.41/bin/bin/../../lib/gcc/pic32c/6.2.1/../../../../pic32c/lib\libc_nano.a(lib_a-readr.o)
 .data          0x00000000        0x0 c:/program files/microchip/xc32/v2.41/bin/bin/../../lib/gcc/pic32c/6.2.1/../../../../pic32c/lib\libc_nano.a(lib_a-readr.o)
 .bss           0x00000000        0x0 c:/program files/microchip/xc32/v2.41/bin/bin/../../lib/gcc/pic32c/6.2.1/../../../../pic32c/lib\libc_nano.a(lib_a-readr.o)
 .text._read_r  0x00000000       0x28 c:/program files/microchip/xc32/v2.41/bin/bin/../../lib/gcc/pic32c/6.2.1/../../../../pic32c/lib\libc_nano.a(lib_a-readr.o)
 .debug_info    0x00000000      0xe49 c:/program files/microchip/xc32/v2.41/bin/bin/../../lib/gcc/pic32c/6.2.1/../../../../pic32c/lib\libc_nano.a(lib_a-readr.o)
 .debug_abbrev  0x00000000      0x193 c:/program files/microchip/xc32/v2.41/bin/bin/../../lib/gcc/pic32c/6.2.1/../../../../pic32c/lib\libc_nano.a(lib_a-readr.o)
 .debug_loc     0x00000000       0xc5 c:/program files/microchip/xc32/v2.41/bin/bin/../../lib/gcc/pic32c/6.2.1/../../../../pic32c/lib\libc_nano.a(lib_a-readr.o)
 .debug_aranges
                0x00000000       0x20 c:/program files/microchip/xc32/v2.41/bin/bin/../../lib/gcc/pic32c/6.2.1/../../../../pic32c/lib\libc_nano.a(lib_a-readr.o)
 .debug_ranges  0x00000000       0x10 c:/program files/microchip/xc32/v2.41/bin/bin/../../lib/gcc/pic32c/6.2.1/../../../../pic32c/lib\libc_nano.a(lib_a-readr.o)
 .debug_line    0x00000000      0x210 c:/program files/microchip/xc32/v2.41/bin/bin/../../lib/gcc/pic32c/6.2.1/../../../../pic32c/lib\libc_nano.a(lib_a-readr.o)
 .debug_str     0x00000000        0x9 c:/program files/microchip/xc32/v2.41/bin/bin/../../lib/gcc/pic32c/6.2.1/../../../../pic32c/lib\libc_nano.a(lib_a-readr.o)
 .comment       0x00000000       0x3d c:/program files/microchip/xc32/v2.41/bin/bin/../../lib/gcc/pic32c/6.2.1/../../../../pic32c/lib\libc_nano.a(lib_a-readr.o)
 .debug_frame   0x00000000       0x2c c:/program files/microchip/xc32/v2.41/bin/bin/../../lib/gcc/pic32c/6.2.1/../../../../pic32c/lib\libc_nano.a(lib_a-readr.o)
 .ARM.attributes
                0x00000000       0x2c c:/program files/microchip/xc32/v2.41/bin/bin/../../lib/gcc/pic32c/6.2.1/../../../../pic32c/lib\libc_nano.a(lib_a-readr.o)
 .text          0x00000000        0x0 c:/program files/microchip/xc32/v2.41/bin/bin/../../lib/gcc/pic32c/6.2.1/../../../../pic32c/lib\libc_nano.a(lib_a-sccl.o)
 .data          0x00000000        0x0 c:/program files/microchip/xc32/v2.41/bin/bin/../../lib/gcc/pic32c/6.2.1/../../../../pic32c/lib\libc_nano.a(lib_a-sccl.o)
 .bss           0x00000000        0x0 c:/program files/microchip/xc32/v2.41/bin/bin/../../lib/gcc/pic32c/6.2.1/../../../../pic32c/lib\libc_nano.a(lib_a-sccl.o)
 .text.__sccl   0x00000000       0x62 c:/program files/microchip/xc32/v2.41/bin/bin/../../lib/gcc/pic32c/6.2.1/../../../../pic32c/lib\libc_nano.a(lib_a-sccl.o)
 .debug_info    0x00000000     0x108c c:/program files/microchip/xc32/v2.41/bin/bin/../../lib/gcc/pic32c/6.2.1/../../../../pic32c/lib\libc_nano.a(lib_a-sccl.o)
 .debug_abbrev  0x00000000      0x191 c:/program files/microchip/xc32/v2.41/bin/bin/../../lib/gcc/pic32c/6.2.1/../../../../pic32c/lib\libc_nano.a(lib_a-sccl.o)
 .debug_loc     0x00000000      0x1a0 c:/program files/microchip/xc32/v2.41/bin/bin/../../lib/gcc/pic32c/6.2.1/../../../../pic32c/lib\libc_nano.a(lib_a-sccl.o)
 .debug_aranges
                0x00000000       0x20 c:/program files/microchip/xc32/v2.41/bin/bin/../../lib/gcc/pic32c/6.2.1/../../../../pic32c/lib\libc_nano.a(lib_a-sccl.o)
 .debug_ranges  0x00000000       0x10 c:/program files/microchip/xc32/v2.41/bin/bin/../../lib/gcc/pic32c/6.2.1/../../../../pic32c/lib\libc_nano.a(lib_a-sccl.o)
 .debug_line    0x00000000      0x240 c:/program files/microchip/xc32/v2.41/bin/bin/../../lib/gcc/pic32c/6.2.1/../../../../pic32c/lib\libc_nano.a(lib_a-sccl.o)
 .debug_str     0x00000000        0x9 c:/program files/microchip/xc32/v2.41/bin/bin/../../lib/gcc/pic32c/6.2.1/../../../../pic32c/lib\libc_nano.a(lib_a-sccl.o)
 .comment       0x00000000       0x3d c:/program files/microchip/xc32/v2.41/bin/bin/../../lib/gcc/pic32c/6.2.1/../../../../pic32c/lib\libc_nano.a(lib_a-sccl.o)
 .debug_frame   0x00000000       0x2c c:/program files/microchip/xc32/v2.41/bin/bin/../../lib/gcc/pic32c/6.2.1/../../../../pic32c/lib\libc_nano.a(lib_a-sccl.o)
 .ARM.attributes
                0x00000000       0x2c c:/program files/microchip/xc32/v2.41/bin/bin/../../lib/gcc/pic32c/6.2.1/../../../../pic32c/lib\libc_nano.a(lib_a-sccl.o)
 .text          0x00000000        0x0 c:/program files/microchip/xc32/v2.41/bin/bin/../../lib/gcc/pic32c/6.2.1/../../../../pic32c/lib\libc_nano.a(lib_a-strtol.o)
 .data          0x00000000        0x0 c:/program files/microchip/xc32/v2.41/bin/bin/../../lib/gcc/pic32c/6.2.1/../../../../pic32c/lib\libc_nano.a(lib_a-strtol.o)
 .bss           0x00000000        0x0 c:/program files/microchip/xc32/v2.41/bin/bin/../../lib/gcc/pic32c/6.2.1/../../../../pic32c/lib\libc_nano.a(lib_a-strtol.o)
 .text._strtol_l.isra.0
                0x00000000      0x10c c:/program files/microchip/xc32/v2.41/bin/bin/../../lib/gcc/pic32c/6.2.1/../../../../pic32c/lib\libc_nano.a(lib_a-strtol.o)
 .text._strtol_r
                0x00000000       0x20 c:/program files/microchip/xc32/v2.41/bin/bin/../../lib/gcc/pic32c/6.2.1/../../../../pic32c/lib\libc_nano.a(lib_a-strtol.o)
 .text.strtol_l
                0x00000000       0x18 c:/program files/microchip/xc32/v2.41/bin/bin/../../lib/gcc/pic32c/6.2.1/../../../../pic32c/lib\libc_nano.a(lib_a-strtol.o)
 .text.strtol   0x00000000       0x28 c:/program files/microchip/xc32/v2.41/bin/bin/../../lib/gcc/pic32c/6.2.1/../../../../pic32c/lib\libc_nano.a(lib_a-strtol.o)
 .debug_info    0x00000000     0x184b c:/program files/microchip/xc32/v2.41/bin/bin/../../lib/gcc/pic32c/6.2.1/../../../../pic32c/lib\libc_nano.a(lib_a-strtol.o)
 .debug_abbrev  0x00000000      0x220 c:/program files/microchip/xc32/v2.41/bin/bin/../../lib/gcc/pic32c/6.2.1/../../../../pic32c/lib\libc_nano.a(lib_a-strtol.o)
 .debug_loc     0x00000000      0x4d5 c:/program files/microchip/xc32/v2.41/bin/bin/../../lib/gcc/pic32c/6.2.1/../../../../pic32c/lib\libc_nano.a(lib_a-strtol.o)
 .debug_aranges
                0x00000000       0x38 c:/program files/microchip/xc32/v2.41/bin/bin/../../lib/gcc/pic32c/6.2.1/../../../../pic32c/lib\libc_nano.a(lib_a-strtol.o)
 .debug_ranges  0x00000000       0x28 c:/program files/microchip/xc32/v2.41/bin/bin/../../lib/gcc/pic32c/6.2.1/../../../../pic32c/lib\libc_nano.a(lib_a-strtol.o)
 .debug_line    0x00000000      0x360 c:/program files/microchip/xc32/v2.41/bin/bin/../../lib/gcc/pic32c/6.2.1/../../../../pic32c/lib\libc_nano.a(lib_a-strtol.o)
 .debug_str     0x00000000      0x129 c:/program files/microchip/xc32/v2.41/bin/bin/../../lib/gcc/pic32c/6.2.1/../../../../pic32c/lib\libc_nano.a(lib_a-strtol.o)
 .comment       0x00000000       0x3d c:/program files/microchip/xc32/v2.41/bin/bin/../../lib/gcc/pic32c/6.2.1/../../../../pic32c/lib\libc_nano.a(lib_a-strtol.o)
 .debug_frame   0x00000000       0x88 c:/program files/microchip/xc32/v2.41/bin/bin/../../lib/gcc/pic32c/6.2.1/../../../../pic32c/lib\libc_nano.a(lib_a-strtol.o)
 .ARM.attributes
                0x00000000       0x2c c:/program files/microchip/xc32/v2.41/bin/bin/../../lib/gcc/pic32c/6.2.1/../../../../pic32c/lib\libc_nano.a(lib_a-strtol.o)
 .text          0x00000000        0x0 c:/program files/microchip/xc32/v2.41/bin/bin/../../lib/gcc/pic32c/6.2.1/../../../../pic32c/lib\libc_nano.a(lib_a-ungetc.o)
 .data          0x00000000        0x0 c:/program files/microchip/xc32/v2.41/bin/bin/../../lib/gcc/pic32c/6.2.1/../../../../pic32c/lib\libc_nano.a(lib_a-ungetc.o)
 .bss           0x00000000        0x0 c:/program files/microchip/xc32/v2.41/bin/bin/../../lib/gcc/pic32c/6.2.1/../../../../pic32c/lib\libc_nano.a(lib_a-ungetc.o)
 .text.__submore
                0x00000000       0x78 c:/program files/microchip/xc32/v2.41/bin/bin/../../lib/gcc/pic32c/6.2.1/../../../../pic32c/lib\libc_nano.a(lib_a-ungetc.o)
 .text._ungetc_r
                0x00000000      0x100 c:/program files/microchip/xc32/v2.41/bin/bin/../../lib/gcc/pic32c/6.2.1/../../../../pic32c/lib\libc_nano.a(lib_a-ungetc.o)
 .text.ungetc   0x00000000       0x14 c:/program files/microchip/xc32/v2.41/bin/bin/../../lib/gcc/pic32c/6.2.1/../../../../pic32c/lib\libc_nano.a(lib_a-ungetc.o)
 .debug_info    0x00000000     0x1274 c:/program files/microchip/xc32/v2.41/bin/bin/../../lib/gcc/pic32c/6.2.1/../../../../pic32c/lib\libc_nano.a(lib_a-ungetc.o)
 .debug_abbrev  0x00000000      0x25b c:/program files/microchip/xc32/v2.41/bin/bin/../../lib/gcc/pic32c/6.2.1/../../../../pic32c/lib\libc_nano.a(lib_a-ungetc.o)
 .debug_loc     0x00000000      0x288 c:/program files/microchip/xc32/v2.41/bin/bin/../../lib/gcc/pic32c/6.2.1/../../../../pic32c/lib\libc_nano.a(lib_a-ungetc.o)
 .debug_aranges
                0x00000000       0x30 c:/program files/microchip/xc32/v2.41/bin/bin/../../lib/gcc/pic32c/6.2.1/../../../../pic32c/lib\libc_nano.a(lib_a-ungetc.o)
 .debug_ranges  0x00000000       0x50 c:/program files/microchip/xc32/v2.41/bin/bin/../../lib/gcc/pic32c/6.2.1/../../../../pic32c/lib\libc_nano.a(lib_a-ungetc.o)
 .debug_line    0x00000000      0x2be c:/program files/microchip/xc32/v2.41/bin/bin/../../lib/gcc/pic32c/6.2.1/../../../../pic32c/lib\libc_nano.a(lib_a-ungetc.o)
 .debug_str     0x00000000       0x28 c:/program files/microchip/xc32/v2.41/bin/bin/../../lib/gcc/pic32c/6.2.1/../../../../pic32c/lib\libc_nano.a(lib_a-ungetc.o)
 .comment       0x00000000       0x3d c:/program files/microchip/xc32/v2.41/bin/bin/../../lib/gcc/pic32c/6.2.1/../../../../pic32c/lib\libc_nano.a(lib_a-ungetc.o)
 .debug_frame   0x00000000       0x6c c:/program files/microchip/xc32/v2.41/bin/bin/../../lib/gcc/pic32c/6.2.1/../../../../pic32c/lib\libc_nano.a(lib_a-ungetc.o)
 .ARM.attributes
                0x00000000       0x2c c:/program files/microchip/xc32/v2.41/bin/bin/../../lib/gcc/pic32c/6.2.1/../../../../pic32c/lib\libc_nano.a(lib_a-ungetc.o)
 .text          0x00000000        0x0 c:/program files/microchip/xc32/v2.41/bin/bin/../../lib/gcc/pic32c/6.2.1/../../../../pic32c/lib\libc_nano.a(lib_a-wcrtomb.o)
 .data          0x00000000        0x0 c:/program files/microchip/xc32/v2.41/bin/bin/../../lib/gcc/pic32c/6.2.1/../../../../pic32c/lib\libc_nano.a(lib_a-wcrtomb.o)
 .bss           0x00000000        0x0 c:/program files/microchip/xc32/v2.41/bin/bin/../../lib/gcc/pic32c/6.2.1/../../../../pic32c/lib\libc_nano.a(lib_a-wcrtomb.o)
 .text._wcrtomb_r
                0x00000000       0x4c c:/program files/microchip/xc32/v2.41/bin/bin/../../lib/gcc/pic32c/6.2.1/../../../../pic32c/lib\libc_nano.a(lib_a-wcrtomb.o)
 .text.wcrtomb  0x00000000       0x18 c:/program files/microchip/xc32/v2.41/bin/bin/../../lib/gcc/pic32c/6.2.1/../../../../pic32c/lib\libc_nano.a(lib_a-wcrtomb.o)
 .debug_info    0x00000000     0x16a4 c:/program files/microchip/xc32/v2.41/bin/bin/../../lib/gcc/pic32c/6.2.1/../../../../pic32c/lib\libc_nano.a(lib_a-wcrtomb.o)
 .debug_abbrev  0x00000000      0x1d5 c:/program files/microchip/xc32/v2.41/bin/bin/../../lib/gcc/pic32c/6.2.1/../../../../pic32c/lib\libc_nano.a(lib_a-wcrtomb.o)
 .debug_loc     0x00000000      0x1cb c:/program files/microchip/xc32/v2.41/bin/bin/../../lib/gcc/pic32c/6.2.1/../../../../pic32c/lib\libc_nano.a(lib_a-wcrtomb.o)
 .debug_aranges
                0x00000000       0x28 c:/program files/microchip/xc32/v2.41/bin/bin/../../lib/gcc/pic32c/6.2.1/../../../../pic32c/lib\libc_nano.a(lib_a-wcrtomb.o)
 .debug_ranges  0x00000000       0x30 c:/program files/microchip/xc32/v2.41/bin/bin/../../lib/gcc/pic32c/6.2.1/../../../../pic32c/lib\libc_nano.a(lib_a-wcrtomb.o)
 .debug_line    0x00000000      0x2ee c:/program files/microchip/xc32/v2.41/bin/bin/../../lib/gcc/pic32c/6.2.1/../../../../pic32c/lib\libc_nano.a(lib_a-wcrtomb.o)
 .debug_str     0x00000000      0x114 c:/program files/microchip/xc32/v2.41/bin/bin/../../lib/gcc/pic32c/6.2.1/../../../../pic32c/lib\libc_nano.a(lib_a-wcrtomb.o)
 .comment       0x00000000       0x3d c:/program files/microchip/xc32/v2.41/bin/bin/../../lib/gcc/pic32c/6.2.1/../../../../pic32c/lib\libc_nano.a(lib_a-wcrtomb.o)
 .debug_frame   0x00000000       0x4c c:/program files/microchip/xc32/v2.41/bin/bin/../../lib/gcc/pic32c/6.2.1/../../../../pic32c/lib\libc_nano.a(lib_a-wcrtomb.o)
 .ARM.attributes
                0x00000000       0x2c c:/program files/microchip/xc32/v2.41/bin/bin/../../lib/gcc/pic32c/6.2.1/../../../../pic32c/lib\libc_nano.a(lib_a-wcrtomb.o)
 .text          0x00000000        0x0 c:/program files/microchip/xc32/v2.41/bin/bin/../../lib/gcc/pic32c/6.2.1/../../../../pic32c/lib\libc_nano.a(lib_a-wctomb_r.o)
 .data          0x00000000        0x0 c:/program files/microchip/xc32/v2.41/bin/bin/../../lib/gcc/pic32c/6.2.1/../../../../pic32c/lib\libc_nano.a(lib_a-wctomb_r.o)
 .bss           0x00000000        0x0 c:/program files/microchip/xc32/v2.41/bin/bin/../../lib/gcc/pic32c/6.2.1/../../../../pic32c/lib\libc_nano.a(lib_a-wctomb_r.o)
 .text._wctomb_r
                0x00000000       0x20 c:/program files/microchip/xc32/v2.41/bin/bin/../../lib/gcc/pic32c/6.2.1/../../../../pic32c/lib\libc_nano.a(lib_a-wctomb_r.o)
 .text.__ascii_wctomb
                0x00000000       0x18 c:/program files/microchip/xc32/v2.41/bin/bin/../../lib/gcc/pic32c/6.2.1/../../../../pic32c/lib\libc_nano.a(lib_a-wctomb_r.o)
 .debug_info    0x00000000     0x166c c:/program files/microchip/xc32/v2.41/bin/bin/../../lib/gcc/pic32c/6.2.1/../../../../pic32c/lib\libc_nano.a(lib_a-wctomb_r.o)
 .debug_abbrev  0x00000000      0x1ce c:/program files/microchip/xc32/v2.41/bin/bin/../../lib/gcc/pic32c/6.2.1/../../../../pic32c/lib\libc_nano.a(lib_a-wctomb_r.o)
 .debug_loc     0x00000000       0xf1 c:/program files/microchip/xc32/v2.41/bin/bin/../../lib/gcc/pic32c/6.2.1/../../../../pic32c/lib\libc_nano.a(lib_a-wctomb_r.o)
 .debug_aranges
                0x00000000       0x28 c:/program files/microchip/xc32/v2.41/bin/bin/../../lib/gcc/pic32c/6.2.1/../../../../pic32c/lib\libc_nano.a(lib_a-wctomb_r.o)
 .debug_ranges  0x00000000       0x18 c:/program files/microchip/xc32/v2.41/bin/bin/../../lib/gcc/pic32c/6.2.1/../../../../pic32c/lib\libc_nano.a(lib_a-wctomb_r.o)
 .debug_line    0x00000000      0x2cf c:/program files/microchip/xc32/v2.41/bin/bin/../../lib/gcc/pic32c/6.2.1/../../../../pic32c/lib\libc_nano.a(lib_a-wctomb_r.o)
 .debug_str     0x00000000      0x114 c:/program files/microchip/xc32/v2.41/bin/bin/../../lib/gcc/pic32c/6.2.1/../../../../pic32c/lib\libc_nano.a(lib_a-wctomb_r.o)
 .comment       0x00000000       0x3d c:/program files/microchip/xc32/v2.41/bin/bin/../../lib/gcc/pic32c/6.2.1/../../../../pic32c/lib\libc_nano.a(lib_a-wctomb_r.o)
 .debug_frame   0x00000000       0x38 c:/program files/microchip/xc32/v2.41/bin/bin/../../lib/gcc/pic32c/6.2.1/../../../../pic32c/lib\libc_nano.a(lib_a-wctomb_r.o)
 .ARM.attributes
                0x00000000       0x2c c:/program files/microchip/xc32/v2.41/bin/bin/../../lib/gcc/pic32c/6.2.1/../../../../pic32c/lib\libc_nano.a(lib_a-wctomb_r.o)
 .text          0x00000000        0x0 c:/program files/microchip/xc32/v2.41/bin/bin/../../lib/gcc/pic32c/6.2.1/../../../../pic32c/lib\libc_nano.a(lib_a-ctype_.o)
 .data          0x00000000        0x0 c:/program files/microchip/xc32/v2.41/bin/bin/../../lib/gcc/pic32c/6.2.1/../../../../pic32c/lib\libc_nano.a(lib_a-ctype_.o)
 .bss           0x00000000        0x0 c:/program files/microchip/xc32/v2.41/bin/bin/../../lib/gcc/pic32c/6.2.1/../../../../pic32c/lib\libc_nano.a(lib_a-ctype_.o)
 .rodata._ctype_
                0x00000000      0x101 c:/program files/microchip/xc32/v2.41/bin/bin/../../lib/gcc/pic32c/6.2.1/../../../../pic32c/lib\libc_nano.a(lib_a-ctype_.o)
 .debug_info    0x00000000     0x14b9 c:/program files/microchip/xc32/v2.41/bin/bin/../../lib/gcc/pic32c/6.2.1/../../../../pic32c/lib\libc_nano.a(lib_a-ctype_.o)
 .debug_abbrev  0x00000000      0x131 c:/program files/microchip/xc32/v2.41/bin/bin/../../lib/gcc/pic32c/6.2.1/../../../../pic32c/lib\libc_nano.a(lib_a-ctype_.o)
 .debug_aranges
                0x00000000       0x18 c:/program files/microchip/xc32/v2.41/bin/bin/../../lib/gcc/pic32c/6.2.1/../../../../pic32c/lib\libc_nano.a(lib_a-ctype_.o)
 .debug_line    0x00000000      0x21e c:/program files/microchip/xc32/v2.41/bin/bin/../../lib/gcc/pic32c/6.2.1/../../../../pic32c/lib\libc_nano.a(lib_a-ctype_.o)
 .debug_str     0x00000000      0x114 c:/program files/microchip/xc32/v2.41/bin/bin/../../lib/gcc/pic32c/6.2.1/../../../../pic32c/lib\libc_nano.a(lib_a-ctype_.o)
 .comment       0x00000000       0x3d c:/program files/microchip/xc32/v2.41/bin/bin/../../lib/gcc/pic32c/6.2.1/../../../../pic32c/lib\libc_nano.a(lib_a-ctype_.o)
 .ARM.attributes
                0x00000000       0x2c c:/program files/microchip/xc32/v2.41/bin/bin/../../lib/gcc/pic32c/6.2.1/../../../../pic32c/lib\libc_nano.a(lib_a-ctype_.o)
 .text          0x00000000        0x0 c:/program files/microchip/xc32/v2.41/bin/bin/../../lib/gcc/pic32c/6.2.1/../../../../pic32c/lib\libc_nano.a(lib_a-fstatr.o)
 .data          0x00000000        0x0 c:/program files/microchip/xc32/v2.41/bin/bin/../../lib/gcc/pic32c/6.2.1/../../../../pic32c/lib\libc_nano.a(lib_a-fstatr.o)
 .bss           0x00000000        0x0 c:/program files/microchip/xc32/v2.41/bin/bin/../../lib/gcc/pic32c/6.2.1/../../../../pic32c/lib\libc_nano.a(lib_a-fstatr.o)
 .text._fstat_r
                0x00000000       0x24 c:/program files/microchip/xc32/v2.41/bin/bin/../../lib/gcc/pic32c/6.2.1/../../../../pic32c/lib\libc_nano.a(lib_a-fstatr.o)
 .debug_info    0x00000000     0x10f5 c:/program files/microchip/xc32/v2.41/bin/bin/../../lib/gcc/pic32c/6.2.1/../../../../pic32c/lib\libc_nano.a(lib_a-fstatr.o)
 .debug_abbrev  0x00000000      0x193 c:/program files/microchip/xc32/v2.41/bin/bin/../../lib/gcc/pic32c/6.2.1/../../../../pic32c/lib\libc_nano.a(lib_a-fstatr.o)
 .debug_loc     0x00000000       0x99 c:/program files/microchip/xc32/v2.41/bin/bin/../../lib/gcc/pic32c/6.2.1/../../../../pic32c/lib\libc_nano.a(lib_a-fstatr.o)
 .debug_aranges
                0x00000000       0x20 c:/program files/microchip/xc32/v2.41/bin/bin/../../lib/gcc/pic32c/6.2.1/../../../../pic32c/lib\libc_nano.a(lib_a-fstatr.o)
 .debug_ranges  0x00000000       0x10 c:/program files/microchip/xc32/v2.41/bin/bin/../../lib/gcc/pic32c/6.2.1/../../../../pic32c/lib\libc_nano.a(lib_a-fstatr.o)
 .debug_line    0x00000000      0x2c3 c:/program files/microchip/xc32/v2.41/bin/bin/../../lib/gcc/pic32c/6.2.1/../../../../pic32c/lib\libc_nano.a(lib_a-fstatr.o)
 .debug_str     0x00000000        0x9 c:/program files/microchip/xc32/v2.41/bin/bin/../../lib/gcc/pic32c/6.2.1/../../../../pic32c/lib\libc_nano.a(lib_a-fstatr.o)
 .comment       0x00000000       0x3d c:/program files/microchip/xc32/v2.41/bin/bin/../../lib/gcc/pic32c/6.2.1/../../../../pic32c/lib\libc_nano.a(lib_a-fstatr.o)
 .debug_frame   0x00000000       0x2c c:/program files/microchip/xc32/v2.41/bin/bin/../../lib/gcc/pic32c/6.2.1/../../../../pic32c/lib\libc_nano.a(lib_a-fstatr.o)
 .ARM.attributes
                0x00000000       0x2c c:/program files/microchip/xc32/v2.41/bin/bin/../../lib/gcc/pic32c/6.2.1/../../../../pic32c/lib\libc_nano.a(lib_a-fstatr.o)
 .text          0x00000000        0x0 c:/program files/microchip/xc32/v2.41/bin/bin/../../lib/gcc/pic32c/6.2.1/../../../../pic32c/lib\libc_nano.a(lib_a-isattyr.o)
 .data          0x00000000        0x0 c:/program files/microchip/xc32/v2.41/bin/bin/../../lib/gcc/pic32c/6.2.1/../../../../pic32c/lib\libc_nano.a(lib_a-isattyr.o)
 .bss           0x00000000        0x0 c:/program files/microchip/xc32/v2.41/bin/bin/../../lib/gcc/pic32c/6.2.1/../../../../pic32c/lib\libc_nano.a(lib_a-isattyr.o)
 .text._isatty_r
                0x00000000       0x24 c:/program files/microchip/xc32/v2.41/bin/bin/../../lib/gcc/pic32c/6.2.1/../../../../pic32c/lib\libc_nano.a(lib_a-isattyr.o)
 .debug_info    0x00000000      0xe07 c:/program files/microchip/xc32/v2.41/bin/bin/../../lib/gcc/pic32c/6.2.1/../../../../pic32c/lib\libc_nano.a(lib_a-isattyr.o)
 .debug_abbrev  0x00000000      0x193 c:/program files/microchip/xc32/v2.41/bin/bin/../../lib/gcc/pic32c/6.2.1/../../../../pic32c/lib\libc_nano.a(lib_a-isattyr.o)
 .debug_loc     0x00000000       0x6d c:/program files/microchip/xc32/v2.41/bin/bin/../../lib/gcc/pic32c/6.2.1/../../../../pic32c/lib\libc_nano.a(lib_a-isattyr.o)
 .debug_aranges
                0x00000000       0x20 c:/program files/microchip/xc32/v2.41/bin/bin/../../lib/gcc/pic32c/6.2.1/../../../../pic32c/lib\libc_nano.a(lib_a-isattyr.o)
 .debug_ranges  0x00000000       0x10 c:/program files/microchip/xc32/v2.41/bin/bin/../../lib/gcc/pic32c/6.2.1/../../../../pic32c/lib\libc_nano.a(lib_a-isattyr.o)
 .debug_line    0x00000000      0x216 c:/program files/microchip/xc32/v2.41/bin/bin/../../lib/gcc/pic32c/6.2.1/../../../../pic32c/lib\libc_nano.a(lib_a-isattyr.o)
 .debug_str     0x00000000        0x9 c:/program files/microchip/xc32/v2.41/bin/bin/../../lib/gcc/pic32c/6.2.1/../../../../pic32c/lib\libc_nano.a(lib_a-isattyr.o)
 .comment       0x00000000       0x3d c:/program files/microchip/xc32/v2.41/bin/bin/../../lib/gcc/pic32c/6.2.1/../../../../pic32c/lib\libc_nano.a(lib_a-isattyr.o)
 .debug_frame   0x00000000       0x2c c:/program files/microchip/xc32/v2.41/bin/bin/../../lib/gcc/pic32c/6.2.1/../../../../pic32c/lib\libc_nano.a(lib_a-isattyr.o)
 .ARM.attributes
                0x00000000       0x2c c:/program files/microchip/xc32/v2.41/bin/bin/../../lib/gcc/pic32c/6.2.1/../../../../pic32c/lib\libc_nano.a(lib_a-isattyr.o)
 .text          0x00000000        0x0 c:/program files/microchip/xc32/v2.41/bin/bin/../../lib/gcc/pic32c/6.2.1/../../../../pic32c/lib\libc_nano.a(lib_a-nano-reallocr.o)
 .data          0x00000000        0x0 c:/program files/microchip/xc32/v2.41/bin/bin/../../lib/gcc/pic32c/6.2.1/../../../../pic32c/lib\libc_nano.a(lib_a-nano-reallocr.o)
 .bss           0x00000000        0x0 c:/program files/microchip/xc32/v2.41/bin/bin/../../lib/gcc/pic32c/6.2.1/../../../../pic32c/lib\libc_nano.a(lib_a-nano-reallocr.o)
 .text._realloc_r
                0x00000000       0x4c c:/program files/microchip/xc32/v2.41/bin/bin/../../lib/gcc/pic32c/6.2.1/../../../../pic32c/lib\libc_nano.a(lib_a-nano-reallocr.o)
 .debug_info    0x00000000     0x109b c:/program files/microchip/xc32/v2.41/bin/bin/../../lib/gcc/pic32c/6.2.1/../../../../pic32c/lib\libc_nano.a(lib_a-nano-reallocr.o)
 .debug_abbrev  0x00000000      0x1d1 c:/program files/microchip/xc32/v2.41/bin/bin/../../lib/gcc/pic32c/6.2.1/../../../../pic32c/lib\libc_nano.a(lib_a-nano-reallocr.o)
 .debug_loc     0x00000000      0x15c c:/program files/microchip/xc32/v2.41/bin/bin/../../lib/gcc/pic32c/6.2.1/../../../../pic32c/lib\libc_nano.a(lib_a-nano-reallocr.o)
 .debug_aranges
                0x00000000       0x20 c:/program files/microchip/xc32/v2.41/bin/bin/../../lib/gcc/pic32c/6.2.1/../../../../pic32c/lib\libc_nano.a(lib_a-nano-reallocr.o)
 .debug_ranges  0x00000000       0x10 c:/program files/microchip/xc32/v2.41/bin/bin/../../lib/gcc/pic32c/6.2.1/../../../../pic32c/lib\libc_nano.a(lib_a-nano-reallocr.o)
 .debug_line    0x00000000      0x223 c:/program files/microchip/xc32/v2.41/bin/bin/../../lib/gcc/pic32c/6.2.1/../../../../pic32c/lib\libc_nano.a(lib_a-nano-reallocr.o)
 .debug_str     0x00000000       0x29 c:/program files/microchip/xc32/v2.41/bin/bin/../../lib/gcc/pic32c/6.2.1/../../../../pic32c/lib\libc_nano.a(lib_a-nano-reallocr.o)
 .comment       0x00000000       0x3d c:/program files/microchip/xc32/v2.41/bin/bin/../../lib/gcc/pic32c/6.2.1/../../../../pic32c/lib\libc_nano.a(lib_a-nano-reallocr.o)
 .debug_frame   0x00000000       0x30 c:/program files/microchip/xc32/v2.41/bin/bin/../../lib/gcc/pic32c/6.2.1/../../../../pic32c/lib\libc_nano.a(lib_a-nano-reallocr.o)
 .ARM.attributes
                0x00000000       0x2c c:/program files/microchip/xc32/v2.41/bin/bin/../../lib/gcc/pic32c/6.2.1/../../../../pic32c/lib\libc_nano.a(lib_a-nano-reallocr.o)
 .text          0x00000000        0x0 c:/program files/microchip/xc32/v2.41/bin/bin/../../lib/gcc/pic32c/6.2.1/../../../../pic32c/lib\libc_nano.a(lib_a-nano-msizer.o)
 .data          0x00000000        0x0 c:/program files/microchip/xc32/v2.41/bin/bin/../../lib/gcc/pic32c/6.2.1/../../../../pic32c/lib\libc_nano.a(lib_a-nano-msizer.o)
 .bss           0x00000000        0x0 c:/program files/microchip/xc32/v2.41/bin/bin/../../lib/gcc/pic32c/6.2.1/../../../../pic32c/lib\libc_nano.a(lib_a-nano-msizer.o)
 .text._malloc_usable_size_r
                0x00000000       0x10 c:/program files/microchip/xc32/v2.41/bin/bin/../../lib/gcc/pic32c/6.2.1/../../../../pic32c/lib\libc_nano.a(lib_a-nano-msizer.o)
 .debug_info    0x00000000      0xfd4 c:/program files/microchip/xc32/v2.41/bin/bin/../../lib/gcc/pic32c/6.2.1/../../../../pic32c/lib\libc_nano.a(lib_a-nano-msizer.o)
 .debug_abbrev  0x00000000      0x17e c:/program files/microchip/xc32/v2.41/bin/bin/../../lib/gcc/pic32c/6.2.1/../../../../pic32c/lib\libc_nano.a(lib_a-nano-msizer.o)
 .debug_loc     0x00000000       0x7d c:/program files/microchip/xc32/v2.41/bin/bin/../../lib/gcc/pic32c/6.2.1/../../../../pic32c/lib\libc_nano.a(lib_a-nano-msizer.o)
 .debug_aranges
                0x00000000       0x20 c:/program files/microchip/xc32/v2.41/bin/bin/../../lib/gcc/pic32c/6.2.1/../../../../pic32c/lib\libc_nano.a(lib_a-nano-msizer.o)
 .debug_ranges  0x00000000       0x10 c:/program files/microchip/xc32/v2.41/bin/bin/../../lib/gcc/pic32c/6.2.1/../../../../pic32c/lib\libc_nano.a(lib_a-nano-msizer.o)
 .debug_line    0x00000000      0x1a4 c:/program files/microchip/xc32/v2.41/bin/bin/../../lib/gcc/pic32c/6.2.1/../../../../pic32c/lib\libc_nano.a(lib_a-nano-msizer.o)
 .debug_str     0x00000000        0x9 c:/program files/microchip/xc32/v2.41/bin/bin/../../lib/gcc/pic32c/6.2.1/../../../../pic32c/lib\libc_nano.a(lib_a-nano-msizer.o)
 .comment       0x00000000       0x3d c:/program files/microchip/xc32/v2.41/bin/bin/../../lib/gcc/pic32c/6.2.1/../../../../pic32c/lib\libc_nano.a(lib_a-nano-msizer.o)
 .debug_frame   0x00000000       0x20 c:/program files/microchip/xc32/v2.41/bin/bin/../../lib/gcc/pic32c/6.2.1/../../../../pic32c/lib\libc_nano.a(lib_a-nano-msizer.o)
 .ARM.attributes
                0x00000000       0x2c c:/program files/microchip/xc32/v2.41/bin/bin/../../lib/gcc/pic32c/6.2.1/../../../../pic32c/lib\libc_nano.a(lib_a-nano-msizer.o)
 .text          0x00000000        0x0 c:/program files/microchip/xc32/v2.41/bin/bin/../../lib/gcc/pic32c/6.2.1/../../../../pic32c/lib\libpic32c.a(_close.o)
 .data          0x00000000        0x0 c:/program files/microchip/xc32/v2.41/bin/bin/../../lib/gcc/pic32c/6.2.1/../../../../pic32c/lib\libpic32c.a(_close.o)
 .bss           0x00000000        0x0 c:/program files/microchip/xc32/v2.41/bin/bin/../../lib/gcc/pic32c/6.2.1/../../../../pic32c/lib\libpic32c.a(_close.o)
 .text._close   0x00000000        0x8 c:/program files/microchip/xc32/v2.41/bin/bin/../../lib/gcc/pic32c/6.2.1/../../../../pic32c/lib\libpic32c.a(_close.o)
 .debug_info    0x00000000      0x1d7 c:/program files/microchip/xc32/v2.41/bin/bin/../../lib/gcc/pic32c/6.2.1/../../../../pic32c/lib\libpic32c.a(_close.o)
 .debug_abbrev  0x00000000       0x2a c:/program files/microchip/xc32/v2.41/bin/bin/../../lib/gcc/pic32c/6.2.1/../../../../pic32c/lib\libpic32c.a(_close.o)
 .debug_loc     0x00000000       0x14 c:/program files/microchip/xc32/v2.41/bin/bin/../../lib/gcc/pic32c/6.2.1/../../../../pic32c/lib\libpic32c.a(_close.o)
 .debug_aranges
                0x00000000       0x20 c:/program files/microchip/xc32/v2.41/bin/bin/../../lib/gcc/pic32c/6.2.1/../../../../pic32c/lib\libpic32c.a(_close.o)
 .debug_ranges  0x00000000       0x10 c:/program files/microchip/xc32/v2.41/bin/bin/../../lib/gcc/pic32c/6.2.1/../../../../pic32c/lib\libpic32c.a(_close.o)
 .debug_line    0x00000000       0x9d c:/program files/microchip/xc32/v2.41/bin/bin/../../lib/gcc/pic32c/6.2.1/../../../../pic32c/lib\libpic32c.a(_close.o)
 .debug_str     0x00000000        0x0 c:/program files/microchip/xc32/v2.41/bin/bin/../../lib/gcc/pic32c/6.2.1/../../../../pic32c/lib\libpic32c.a(_close.o)
 .comment       0x00000000       0x3d c:/program files/microchip/xc32/v2.41/bin/bin/../../lib/gcc/pic32c/6.2.1/../../../../pic32c/lib\libpic32c.a(_close.o)
 .debug_frame   0x00000000       0x28 c:/program files/microchip/xc32/v2.41/bin/bin/../../lib/gcc/pic32c/6.2.1/../../../../pic32c/lib\libpic32c.a(_close.o)
 .ARM.attributes
                0x00000000       0x2c c:/program files/microchip/xc32/v2.41/bin/bin/../../lib/gcc/pic32c/6.2.1/../../../../pic32c/lib\libpic32c.a(_close.o)
 .text          0x00000000        0x0 c:/program files/microchip/xc32/v2.41/bin/bin/../../lib/gcc/pic32c/6.2.1/../../../../pic32c/lib\libpic32c.a(_fstat.o)
 .data          0x00000000        0x0 c:/program files/microchip/xc32/v2.41/bin/bin/../../lib/gcc/pic32c/6.2.1/../../../../pic32c/lib\libpic32c.a(_fstat.o)
 .bss           0x00000000        0x0 c:/program files/microchip/xc32/v2.41/bin/bin/../../lib/gcc/pic32c/6.2.1/../../../../pic32c/lib\libpic32c.a(_fstat.o)
 .text._fstat   0x00000000        0x8 c:/program files/microchip/xc32/v2.41/bin/bin/../../lib/gcc/pic32c/6.2.1/../../../../pic32c/lib\libpic32c.a(_fstat.o)
 .debug_info    0x00000000      0x1d7 c:/program files/microchip/xc32/v2.41/bin/bin/../../lib/gcc/pic32c/6.2.1/../../../../pic32c/lib\libpic32c.a(_fstat.o)
 .debug_abbrev  0x00000000       0x2a c:/program files/microchip/xc32/v2.41/bin/bin/../../lib/gcc/pic32c/6.2.1/../../../../pic32c/lib\libpic32c.a(_fstat.o)
 .debug_loc     0x00000000       0x14 c:/program files/microchip/xc32/v2.41/bin/bin/../../lib/gcc/pic32c/6.2.1/../../../../pic32c/lib\libpic32c.a(_fstat.o)
 .debug_aranges
                0x00000000       0x20 c:/program files/microchip/xc32/v2.41/bin/bin/../../lib/gcc/pic32c/6.2.1/../../../../pic32c/lib\libpic32c.a(_fstat.o)
 .debug_ranges  0x00000000       0x10 c:/program files/microchip/xc32/v2.41/bin/bin/../../lib/gcc/pic32c/6.2.1/../../../../pic32c/lib\libpic32c.a(_fstat.o)
 .debug_line    0x00000000       0x9d c:/program files/microchip/xc32/v2.41/bin/bin/../../lib/gcc/pic32c/6.2.1/../../../../pic32c/lib\libpic32c.a(_fstat.o)
 .debug_str     0x00000000        0x0 c:/program files/microchip/xc32/v2.41/bin/bin/../../lib/gcc/pic32c/6.2.1/../../../../pic32c/lib\libpic32c.a(_fstat.o)
 .comment       0x00000000       0x3d c:/program files/microchip/xc32/v2.41/bin/bin/../../lib/gcc/pic32c/6.2.1/../../../../pic32c/lib\libpic32c.a(_fstat.o)
 .debug_frame   0x00000000       0x28 c:/program files/microchip/xc32/v2.41/bin/bin/../../lib/gcc/pic32c/6.2.1/../../../../pic32c/lib\libpic32c.a(_fstat.o)
 .ARM.attributes
                0x00000000       0x2c c:/program files/microchip/xc32/v2.41/bin/bin/../../lib/gcc/pic32c/6.2.1/../../../../pic32c/lib\libpic32c.a(_fstat.o)
 .text          0x00000000        0x0 c:/program files/microchip/xc32/v2.41/bin/bin/../../lib/gcc/pic32c/6.2.1/../../../../pic32c/lib\libpic32c.a(_isatty.o)
 .data          0x00000000        0x0 c:/program files/microchip/xc32/v2.41/bin/bin/../../lib/gcc/pic32c/6.2.1/../../../../pic32c/lib\libpic32c.a(_isatty.o)
 .bss           0x00000000        0x0 c:/program files/microchip/xc32/v2.41/bin/bin/../../lib/gcc/pic32c/6.2.1/../../../../pic32c/lib\libpic32c.a(_isatty.o)
 .text._isatty  0x00000000        0x8 c:/program files/microchip/xc32/v2.41/bin/bin/../../lib/gcc/pic32c/6.2.1/../../../../pic32c/lib\libpic32c.a(_isatty.o)
 .debug_info    0x00000000      0x1d9 c:/program files/microchip/xc32/v2.41/bin/bin/../../lib/gcc/pic32c/6.2.1/../../../../pic32c/lib\libpic32c.a(_isatty.o)
 .debug_abbrev  0x00000000       0x2a c:/program files/microchip/xc32/v2.41/bin/bin/../../lib/gcc/pic32c/6.2.1/../../../../pic32c/lib\libpic32c.a(_isatty.o)
 .debug_loc     0x00000000       0x14 c:/program files/microchip/xc32/v2.41/bin/bin/../../lib/gcc/pic32c/6.2.1/../../../../pic32c/lib\libpic32c.a(_isatty.o)
 .debug_aranges
                0x00000000       0x20 c:/program files/microchip/xc32/v2.41/bin/bin/../../lib/gcc/pic32c/6.2.1/../../../../pic32c/lib\libpic32c.a(_isatty.o)
 .debug_ranges  0x00000000       0x10 c:/program files/microchip/xc32/v2.41/bin/bin/../../lib/gcc/pic32c/6.2.1/../../../../pic32c/lib\libpic32c.a(_isatty.o)
 .debug_line    0x00000000       0x9e c:/program files/microchip/xc32/v2.41/bin/bin/../../lib/gcc/pic32c/6.2.1/../../../../pic32c/lib\libpic32c.a(_isatty.o)
 .debug_str     0x00000000        0x0 c:/program files/microchip/xc32/v2.41/bin/bin/../../lib/gcc/pic32c/6.2.1/../../../../pic32c/lib\libpic32c.a(_isatty.o)
 .comment       0x00000000       0x3d c:/program files/microchip/xc32/v2.41/bin/bin/../../lib/gcc/pic32c/6.2.1/../../../../pic32c/lib\libpic32c.a(_isatty.o)
 .debug_frame   0x00000000       0x28 c:/program files/microchip/xc32/v2.41/bin/bin/../../lib/gcc/pic32c/6.2.1/../../../../pic32c/lib\libpic32c.a(_isatty.o)
 .ARM.attributes
                0x00000000       0x2c c:/program files/microchip/xc32/v2.41/bin/bin/../../lib/gcc/pic32c/6.2.1/../../../../pic32c/lib\libpic32c.a(_isatty.o)
 .text          0x00000000        0x0 c:/program files/microchip/xc32/v2.41/bin/bin/../../lib/gcc/pic32c/6.2.1/../../../../pic32c/lib\libpic32c.a(_lseek.o)
 .data          0x00000000        0x0 c:/program files/microchip/xc32/v2.41/bin/bin/../../lib/gcc/pic32c/6.2.1/../../../../pic32c/lib\libpic32c.a(_lseek.o)
 .bss           0x00000000        0x0 c:/program files/microchip/xc32/v2.41/bin/bin/../../lib/gcc/pic32c/6.2.1/../../../../pic32c/lib\libpic32c.a(_lseek.o)
 .text._lseek   0x00000000        0x8 c:/program files/microchip/xc32/v2.41/bin/bin/../../lib/gcc/pic32c/6.2.1/../../../../pic32c/lib\libpic32c.a(_lseek.o)
 .debug_info    0x00000000      0x1d7 c:/program files/microchip/xc32/v2.41/bin/bin/../../lib/gcc/pic32c/6.2.1/../../../../pic32c/lib\libpic32c.a(_lseek.o)
 .debug_abbrev  0x00000000       0x2a c:/program files/microchip/xc32/v2.41/bin/bin/../../lib/gcc/pic32c/6.2.1/../../../../pic32c/lib\libpic32c.a(_lseek.o)
 .debug_loc     0x00000000       0x14 c:/program files/microchip/xc32/v2.41/bin/bin/../../lib/gcc/pic32c/6.2.1/../../../../pic32c/lib\libpic32c.a(_lseek.o)
 .debug_aranges
                0x00000000       0x20 c:/program files/microchip/xc32/v2.41/bin/bin/../../lib/gcc/pic32c/6.2.1/../../../../pic32c/lib\libpic32c.a(_lseek.o)
 .debug_ranges  0x00000000       0x10 c:/program files/microchip/xc32/v2.41/bin/bin/../../lib/gcc/pic32c/6.2.1/../../../../pic32c/lib\libpic32c.a(_lseek.o)
 .debug_line    0x00000000       0x9d c:/program files/microchip/xc32/v2.41/bin/bin/../../lib/gcc/pic32c/6.2.1/../../../../pic32c/lib\libpic32c.a(_lseek.o)
 .debug_str     0x00000000        0x0 c:/program files/microchip/xc32/v2.41/bin/bin/../../lib/gcc/pic32c/6.2.1/../../../../pic32c/lib\libpic32c.a(_lseek.o)
 .comment       0x00000000       0x3d c:/program files/microchip/xc32/v2.41/bin/bin/../../lib/gcc/pic32c/6.2.1/../../../../pic32c/lib\libpic32c.a(_lseek.o)
 .debug_frame   0x00000000       0x28 c:/program files/microchip/xc32/v2.41/bin/bin/../../lib/gcc/pic32c/6.2.1/../../../../pic32c/lib\libpic32c.a(_lseek.o)
 .ARM.attributes
                0x00000000       0x2c c:/program files/microchip/xc32/v2.41/bin/bin/../../lib/gcc/pic32c/6.2.1/../../../../pic32c/lib\libpic32c.a(_lseek.o)
 .text          0x00000000        0x0 c:/program files/microchip/xc32/v2.41/bin/bin/../../lib/gcc/pic32c/6.2.1/../../../../pic32c/lib\libpic32c.a(_read.o)
 .data          0x00000000        0x0 c:/program files/microchip/xc32/v2.41/bin/bin/../../lib/gcc/pic32c/6.2.1/../../../../pic32c/lib\libpic32c.a(_read.o)
 .bss           0x00000000        0x0 c:/program files/microchip/xc32/v2.41/bin/bin/../../lib/gcc/pic32c/6.2.1/../../../../pic32c/lib\libpic32c.a(_read.o)
 .text._read    0x00000000        0x8 c:/program files/microchip/xc32/v2.41/bin/bin/../../lib/gcc/pic32c/6.2.1/../../../../pic32c/lib\libpic32c.a(_read.o)
 .debug_info    0x00000000      0x1d5 c:/program files/microchip/xc32/v2.41/bin/bin/../../lib/gcc/pic32c/6.2.1/../../../../pic32c/lib\libpic32c.a(_read.o)
 .debug_abbrev  0x00000000       0x2a c:/program files/microchip/xc32/v2.41/bin/bin/../../lib/gcc/pic32c/6.2.1/../../../../pic32c/lib\libpic32c.a(_read.o)
 .debug_loc     0x00000000       0x14 c:/program files/microchip/xc32/v2.41/bin/bin/../../lib/gcc/pic32c/6.2.1/../../../../pic32c/lib\libpic32c.a(_read.o)
 .debug_aranges
                0x00000000       0x20 c:/program files/microchip/xc32/v2.41/bin/bin/../../lib/gcc/pic32c/6.2.1/../../../../pic32c/lib\libpic32c.a(_read.o)
 .debug_ranges  0x00000000       0x10 c:/program files/microchip/xc32/v2.41/bin/bin/../../lib/gcc/pic32c/6.2.1/../../../../pic32c/lib\libpic32c.a(_read.o)
 .debug_line    0x00000000       0x9c c:/program files/microchip/xc32/v2.41/bin/bin/../../lib/gcc/pic32c/6.2.1/../../../../pic32c/lib\libpic32c.a(_read.o)
 .debug_str     0x00000000        0x0 c:/program files/microchip/xc32/v2.41/bin/bin/../../lib/gcc/pic32c/6.2.1/../../../../pic32c/lib\libpic32c.a(_read.o)
 .comment       0x00000000       0x3d c:/program files/microchip/xc32/v2.41/bin/bin/../../lib/gcc/pic32c/6.2.1/../../../../pic32c/lib\libpic32c.a(_read.o)
 .debug_frame   0x00000000       0x28 c:/program files/microchip/xc32/v2.41/bin/bin/../../lib/gcc/pic32c/6.2.1/../../../../pic32c/lib\libpic32c.a(_read.o)
 .ARM.attributes
                0x00000000       0x2c c:/program files/microchip/xc32/v2.41/bin/bin/../../lib/gcc/pic32c/6.2.1/../../../../pic32c/lib\libpic32c.a(_read.o)
 .text          0x00000000        0x0 c:/program files/microchip/xc32/v2.41/bin/bin/../../lib/gcc/pic32c/6.2.1/../../../../pic32c/lib\libpic32c.a(sbrk.o)
 .data          0x00000000        0x0 c:/program files/microchip/xc32/v2.41/bin/bin/../../lib/gcc/pic32c/6.2.1/../../../../pic32c/lib\libpic32c.a(sbrk.o)
 .bss           0x00000000        0x4 c:/program files/microchip/xc32/v2.41/bin/bin/../../lib/gcc/pic32c/6.2.1/../../../../pic32c/lib\libpic32c.a(sbrk.o)
 .text._sbrk    0x00000000       0x30 c:/program files/microchip/xc32/v2.41/bin/bin/../../lib/gcc/pic32c/6.2.1/../../../../pic32c/lib\libpic32c.a(sbrk.o)
 .debug_info    0x00000000      0x1d3 c:/program files/microchip/xc32/v2.41/bin/bin/../../lib/gcc/pic32c/6.2.1/../../../../pic32c/lib\libpic32c.a(sbrk.o)
 .debug_abbrev  0x00000000       0x2a c:/program files/microchip/xc32/v2.41/bin/bin/../../lib/gcc/pic32c/6.2.1/../../../../pic32c/lib\libpic32c.a(sbrk.o)
 .debug_aranges
                0x00000000       0x20 c:/program files/microchip/xc32/v2.41/bin/bin/../../lib/gcc/pic32c/6.2.1/../../../../pic32c/lib\libpic32c.a(sbrk.o)
 .debug_ranges  0x00000000       0x10 c:/program files/microchip/xc32/v2.41/bin/bin/../../lib/gcc/pic32c/6.2.1/../../../../pic32c/lib\libpic32c.a(sbrk.o)
 .debug_line    0x00000000       0xa4 c:/program files/microchip/xc32/v2.41/bin/bin/../../lib/gcc/pic32c/6.2.1/../../../../pic32c/lib\libpic32c.a(sbrk.o)
 .debug_str     0x00000000        0x0 c:/program files/microchip/xc32/v2.41/bin/bin/../../lib/gcc/pic32c/6.2.1/../../../../pic32c/lib\libpic32c.a(sbrk.o)
 .comment       0x00000000       0x3d c:/program files/microchip/xc32/v2.41/bin/bin/../../lib/gcc/pic32c/6.2.1/../../../../pic32c/lib\libpic32c.a(sbrk.o)
 .debug_frame   0x00000000       0x20 c:/program files/microchip/xc32/v2.41/bin/bin/../../lib/gcc/pic32c/6.2.1/../../../../pic32c/lib\libpic32c.a(sbrk.o)
 .ARM.attributes
                0x00000000       0x2c c:/program files/microchip/xc32/v2.41/bin/bin/../../lib/gcc/pic32c/6.2.1/../../../../pic32c/lib\libpic32c.a(sbrk.o)
 .text          0x00000000        0x0 c:/program files/microchip/xc32/v2.41/bin/bin/../../lib/gcc/pic32c/6.2.1/../../../../pic32c/lib\libpic32c.a(_write.o)
 .data          0x00000000        0x0 c:/program files/microchip/xc32/v2.41/bin/bin/../../lib/gcc/pic32c/6.2.1/../../../../pic32c/lib\libpic32c.a(_write.o)
 .bss           0x00000000        0x0 c:/program files/microchip/xc32/v2.41/bin/bin/../../lib/gcc/pic32c/6.2.1/../../../../pic32c/lib\libpic32c.a(_write.o)
 .text._write   0x00000000        0x8 c:/program files/microchip/xc32/v2.41/bin/bin/../../lib/gcc/pic32c/6.2.1/../../../../pic32c/lib\libpic32c.a(_write.o)
 .debug_info    0x00000000      0x1d7 c:/program files/microchip/xc32/v2.41/bin/bin/../../lib/gcc/pic32c/6.2.1/../../../../pic32c/lib\libpic32c.a(_write.o)
 .debug_abbrev  0x00000000       0x2a c:/program files/microchip/xc32/v2.41/bin/bin/../../lib/gcc/pic32c/6.2.1/../../../../pic32c/lib\libpic32c.a(_write.o)
 .debug_loc     0x00000000       0x14 c:/program files/microchip/xc32/v2.41/bin/bin/../../lib/gcc/pic32c/6.2.1/../../../../pic32c/lib\libpic32c.a(_write.o)
 .debug_aranges
                0x00000000       0x20 c:/program files/microchip/xc32/v2.41/bin/bin/../../lib/gcc/pic32c/6.2.1/../../../../pic32c/lib\libpic32c.a(_write.o)
 .debug_ranges  0x00000000       0x10 c:/program files/microchip/xc32/v2.41/bin/bin/../../lib/gcc/pic32c/6.2.1/../../../../pic32c/lib\libpic32c.a(_write.o)
 .debug_line    0x00000000       0x9d c:/program files/microchip/xc32/v2.41/bin/bin/../../lib/gcc/pic32c/6.2.1/../../../../pic32c/lib\libpic32c.a(_write.o)
 .debug_str     0x00000000        0x0 c:/program files/microchip/xc32/v2.41/bin/bin/../../lib/gcc/pic32c/6.2.1/../../../../pic32c/lib\libpic32c.a(_write.o)
 .comment       0x00000000       0x3d c:/program files/microchip/xc32/v2.41/bin/bin/../../lib/gcc/pic32c/6.2.1/../../../../pic32c/lib\libpic32c.a(_write.o)
 .debug_frame   0x00000000       0x28 c:/program files/microchip/xc32/v2.41/bin/bin/../../lib/gcc/pic32c/6.2.1/../../../../pic32c/lib\libpic32c.a(_write.o)
 .ARM.attributes
                0x00000000       0x2c c:/program files/microchip/xc32/v2.41/bin/bin/../../lib/gcc/pic32c/6.2.1/../../../../pic32c/lib\libpic32c.a(_write.o)
 .text          0x00000000        0x0 c:/program files/microchip/xc32/v2.41/bin/bin/../../lib/gcc/pic32c/6.2.1/../../../../pic32c/lib\libpic32c.a(close.o)
 .data          0x00000000        0x0 c:/program files/microchip/xc32/v2.41/bin/bin/../../lib/gcc/pic32c/6.2.1/../../../../pic32c/lib\libpic32c.a(close.o)
 .bss           0x00000000        0x0 c:/program files/microchip/xc32/v2.41/bin/bin/../../lib/gcc/pic32c/6.2.1/../../../../pic32c/lib\libpic32c.a(close.o)
 .text.close    0x00000000        0x8 c:/program files/microchip/xc32/v2.41/bin/bin/../../lib/gcc/pic32c/6.2.1/../../../../pic32c/lib\libpic32c.a(close.o)
 .gnu.warning.closestub
                0x00000000        0x0 c:/program files/microchip/xc32/v2.41/bin/bin/../../lib/gcc/pic32c/6.2.1/../../../../pic32c/lib\libpic32c.a(close.o)
 .debug_info    0x00000000      0x1d4 c:/program files/microchip/xc32/v2.41/bin/bin/../../lib/gcc/pic32c/6.2.1/../../../../pic32c/lib\libpic32c.a(close.o)
 .debug_abbrev  0x00000000       0x2a c:/program files/microchip/xc32/v2.41/bin/bin/../../lib/gcc/pic32c/6.2.1/../../../../pic32c/lib\libpic32c.a(close.o)
 .debug_aranges
                0x00000000       0x20 c:/program files/microchip/xc32/v2.41/bin/bin/../../lib/gcc/pic32c/6.2.1/../../../../pic32c/lib\libpic32c.a(close.o)
 .debug_ranges  0x00000000       0x10 c:/program files/microchip/xc32/v2.41/bin/bin/../../lib/gcc/pic32c/6.2.1/../../../../pic32c/lib\libpic32c.a(close.o)
 .debug_line    0x00000000       0x9b c:/program files/microchip/xc32/v2.41/bin/bin/../../lib/gcc/pic32c/6.2.1/../../../../pic32c/lib\libpic32c.a(close.o)
 .debug_str     0x00000000        0x0 c:/program files/microchip/xc32/v2.41/bin/bin/../../lib/gcc/pic32c/6.2.1/../../../../pic32c/lib\libpic32c.a(close.o)
 .comment       0x00000000       0x3d c:/program files/microchip/xc32/v2.41/bin/bin/../../lib/gcc/pic32c/6.2.1/../../../../pic32c/lib\libpic32c.a(close.o)
 .debug_frame   0x00000000       0x20 c:/program files/microchip/xc32/v2.41/bin/bin/../../lib/gcc/pic32c/6.2.1/../../../../pic32c/lib\libpic32c.a(close.o)
 .ARM.attributes
                0x00000000       0x2c c:/program files/microchip/xc32/v2.41/bin/bin/../../lib/gcc/pic32c/6.2.1/../../../../pic32c/lib\libpic32c.a(close.o)
 .text          0x00000000        0x0 c:/program files/microchip/xc32/v2.41/bin/bin/../../lib/gcc/pic32c/6.2.1/../../../../pic32c/lib\libpic32c.a(fstat.o)
 .data          0x00000000        0x0 c:/program files/microchip/xc32/v2.41/bin/bin/../../lib/gcc/pic32c/6.2.1/../../../../pic32c/lib\libpic32c.a(fstat.o)
 .bss           0x00000000        0x0 c:/program files/microchip/xc32/v2.41/bin/bin/../../lib/gcc/pic32c/6.2.1/../../../../pic32c/lib\libpic32c.a(fstat.o)
 .text.fstat    0x00000000        0xc c:/program files/microchip/xc32/v2.41/bin/bin/../../lib/gcc/pic32c/6.2.1/../../../../pic32c/lib\libpic32c.a(fstat.o)
 .debug_info    0x00000000      0x1d4 c:/program files/microchip/xc32/v2.41/bin/bin/../../lib/gcc/pic32c/6.2.1/../../../../pic32c/lib\libpic32c.a(fstat.o)
 .debug_abbrev  0x00000000       0x2a c:/program files/microchip/xc32/v2.41/bin/bin/../../lib/gcc/pic32c/6.2.1/../../../../pic32c/lib\libpic32c.a(fstat.o)
 .debug_aranges
                0x00000000       0x20 c:/program files/microchip/xc32/v2.41/bin/bin/../../lib/gcc/pic32c/6.2.1/../../../../pic32c/lib\libpic32c.a(fstat.o)
 .debug_ranges  0x00000000       0x10 c:/program files/microchip/xc32/v2.41/bin/bin/../../lib/gcc/pic32c/6.2.1/../../../../pic32c/lib\libpic32c.a(fstat.o)
 .debug_line    0x00000000      0x104 c:/program files/microchip/xc32/v2.41/bin/bin/../../lib/gcc/pic32c/6.2.1/../../../../pic32c/lib\libpic32c.a(fstat.o)
 .debug_str     0x00000000        0x0 c:/program files/microchip/xc32/v2.41/bin/bin/../../lib/gcc/pic32c/6.2.1/../../../../pic32c/lib\libpic32c.a(fstat.o)
 .comment       0x00000000       0x3d c:/program files/microchip/xc32/v2.41/bin/bin/../../lib/gcc/pic32c/6.2.1/../../../../pic32c/lib\libpic32c.a(fstat.o)
 .debug_frame   0x00000000       0x20 c:/program files/microchip/xc32/v2.41/bin/bin/../../lib/gcc/pic32c/6.2.1/../../../../pic32c/lib\libpic32c.a(fstat.o)
 .ARM.attributes
                0x00000000       0x2c c:/program files/microchip/xc32/v2.41/bin/bin/../../lib/gcc/pic32c/6.2.1/../../../../pic32c/lib\libpic32c.a(fstat.o)
 .text          0x00000000        0x0 c:/program files/microchip/xc32/v2.41/bin/bin/../../lib/gcc/pic32c/6.2.1/../../../../pic32c/lib\libpic32c.a(isatty.o)
 .data          0x00000000        0x0 c:/program files/microchip/xc32/v2.41/bin/bin/../../lib/gcc/pic32c/6.2.1/../../../../pic32c/lib\libpic32c.a(isatty.o)
 .bss           0x00000000        0x0 c:/program files/microchip/xc32/v2.41/bin/bin/../../lib/gcc/pic32c/6.2.1/../../../../pic32c/lib\libpic32c.a(isatty.o)
 .text.isatty   0x00000000        0x4 c:/program files/microchip/xc32/v2.41/bin/bin/../../lib/gcc/pic32c/6.2.1/../../../../pic32c/lib\libpic32c.a(isatty.o)
 .debug_info    0x00000000      0x1d6 c:/program files/microchip/xc32/v2.41/bin/bin/../../lib/gcc/pic32c/6.2.1/../../../../pic32c/lib\libpic32c.a(isatty.o)
 .debug_abbrev  0x00000000       0x2a c:/program files/microchip/xc32/v2.41/bin/bin/../../lib/gcc/pic32c/6.2.1/../../../../pic32c/lib\libpic32c.a(isatty.o)
 .debug_aranges
                0x00000000       0x20 c:/program files/microchip/xc32/v2.41/bin/bin/../../lib/gcc/pic32c/6.2.1/../../../../pic32c/lib\libpic32c.a(isatty.o)
 .debug_ranges  0x00000000       0x10 c:/program files/microchip/xc32/v2.41/bin/bin/../../lib/gcc/pic32c/6.2.1/../../../../pic32c/lib\libpic32c.a(isatty.o)
 .debug_line    0x00000000       0x9c c:/program files/microchip/xc32/v2.41/bin/bin/../../lib/gcc/pic32c/6.2.1/../../../../pic32c/lib\libpic32c.a(isatty.o)
 .debug_str     0x00000000        0x0 c:/program files/microchip/xc32/v2.41/bin/bin/../../lib/gcc/pic32c/6.2.1/../../../../pic32c/lib\libpic32c.a(isatty.o)
 .comment       0x00000000       0x3d c:/program files/microchip/xc32/v2.41/bin/bin/../../lib/gcc/pic32c/6.2.1/../../../../pic32c/lib\libpic32c.a(isatty.o)
 .debug_frame   0x00000000       0x20 c:/program files/microchip/xc32/v2.41/bin/bin/../../lib/gcc/pic32c/6.2.1/../../../../pic32c/lib\libpic32c.a(isatty.o)
 .ARM.attributes
                0x00000000       0x2c c:/program files/microchip/xc32/v2.41/bin/bin/../../lib/gcc/pic32c/6.2.1/../../../../pic32c/lib\libpic32c.a(isatty.o)
 .text          0x00000000        0x0 c:/program files/microchip/xc32/v2.41/bin/bin/../../lib/gcc/pic32c/6.2.1/../../../../pic32c/lib\libpic32c.a(lseek.o)
 .data          0x00000000        0x0 c:/program files/microchip/xc32/v2.41/bin/bin/../../lib/gcc/pic32c/6.2.1/../../../../pic32c/lib\libpic32c.a(lseek.o)
 .bss           0x00000000        0x0 c:/program files/microchip/xc32/v2.41/bin/bin/../../lib/gcc/pic32c/6.2.1/../../../../pic32c/lib\libpic32c.a(lseek.o)
 .text.lseek    0x00000000        0x4 c:/program files/microchip/xc32/v2.41/bin/bin/../../lib/gcc/pic32c/6.2.1/../../../../pic32c/lib\libpic32c.a(lseek.o)
 .debug_info    0x00000000      0x1d4 c:/program files/microchip/xc32/v2.41/bin/bin/../../lib/gcc/pic32c/6.2.1/../../../../pic32c/lib\libpic32c.a(lseek.o)
 .debug_abbrev  0x00000000       0x2a c:/program files/microchip/xc32/v2.41/bin/bin/../../lib/gcc/pic32c/6.2.1/../../../../pic32c/lib\libpic32c.a(lseek.o)
 .debug_aranges
                0x00000000       0x20 c:/program files/microchip/xc32/v2.41/bin/bin/../../lib/gcc/pic32c/6.2.1/../../../../pic32c/lib\libpic32c.a(lseek.o)
 .debug_ranges  0x00000000       0x10 c:/program files/microchip/xc32/v2.41/bin/bin/../../lib/gcc/pic32c/6.2.1/../../../../pic32c/lib\libpic32c.a(lseek.o)
 .debug_line    0x00000000       0x9b c:/program files/microchip/xc32/v2.41/bin/bin/../../lib/gcc/pic32c/6.2.1/../../../../pic32c/lib\libpic32c.a(lseek.o)
 .debug_str     0x00000000        0x0 c:/program files/microchip/xc32/v2.41/bin/bin/../../lib/gcc/pic32c/6.2.1/../../../../pic32c/lib\libpic32c.a(lseek.o)
 .comment       0x00000000       0x3d c:/program files/microchip/xc32/v2.41/bin/bin/../../lib/gcc/pic32c/6.2.1/../../../../pic32c/lib\libpic32c.a(lseek.o)
 .debug_frame   0x00000000       0x20 c:/program files/microchip/xc32/v2.41/bin/bin/../../lib/gcc/pic32c/6.2.1/../../../../pic32c/lib\libpic32c.a(lseek.o)
 .ARM.attributes
                0x00000000       0x2c c:/program files/microchip/xc32/v2.41/bin/bin/../../lib/gcc/pic32c/6.2.1/../../../../pic32c/lib\libpic32c.a(lseek.o)
 .text          0x00000000        0x0 c:/program files/microchip/xc32/v2.41/bin/bin/../../lib/gcc/pic32c/6.2.1/../../../../pic32c/lib\libpic32c.a(read.o)
 .data          0x00000000        0x0 c:/program files/microchip/xc32/v2.41/bin/bin/../../lib/gcc/pic32c/6.2.1/../../../../pic32c/lib\libpic32c.a(read.o)
 .bss           0x00000000        0x0 c:/program files/microchip/xc32/v2.41/bin/bin/../../lib/gcc/pic32c/6.2.1/../../../../pic32c/lib\libpic32c.a(read.o)
 .text.read     0x00000000       0x2c c:/program files/microchip/xc32/v2.41/bin/bin/../../lib/gcc/pic32c/6.2.1/../../../../pic32c/lib\libpic32c.a(read.o)
 .debug_info    0x00000000      0x1d3 c:/program files/microchip/xc32/v2.41/bin/bin/../../lib/gcc/pic32c/6.2.1/../../../../pic32c/lib\libpic32c.a(read.o)
 .debug_abbrev  0x00000000       0x2a c:/program files/microchip/xc32/v2.41/bin/bin/../../lib/gcc/pic32c/6.2.1/../../../../pic32c/lib\libpic32c.a(read.o)
 .debug_loc     0x00000000       0x14 c:/program files/microchip/xc32/v2.41/bin/bin/../../lib/gcc/pic32c/6.2.1/../../../../pic32c/lib\libpic32c.a(read.o)
 .debug_aranges
                0x00000000       0x20 c:/program files/microchip/xc32/v2.41/bin/bin/../../lib/gcc/pic32c/6.2.1/../../../../pic32c/lib\libpic32c.a(read.o)
 .debug_ranges  0x00000000       0x10 c:/program files/microchip/xc32/v2.41/bin/bin/../../lib/gcc/pic32c/6.2.1/../../../../pic32c/lib\libpic32c.a(read.o)
 .debug_line    0x00000000       0xae c:/program files/microchip/xc32/v2.41/bin/bin/../../lib/gcc/pic32c/6.2.1/../../../../pic32c/lib\libpic32c.a(read.o)
 .debug_str     0x00000000        0x0 c:/program files/microchip/xc32/v2.41/bin/bin/../../lib/gcc/pic32c/6.2.1/../../../../pic32c/lib\libpic32c.a(read.o)
 .comment       0x00000000       0x3d c:/program files/microchip/xc32/v2.41/bin/bin/../../lib/gcc/pic32c/6.2.1/../../../../pic32c/lib\libpic32c.a(read.o)
 .debug_frame   0x00000000       0x2c c:/program files/microchip/xc32/v2.41/bin/bin/../../lib/gcc/pic32c/6.2.1/../../../../pic32c/lib\libpic32c.a(read.o)
 .ARM.attributes
                0x00000000       0x2c c:/program files/microchip/xc32/v2.41/bin/bin/../../lib/gcc/pic32c/6.2.1/../../../../pic32c/lib\libpic32c.a(read.o)
 .text          0x00000000        0x0 c:/program files/microchip/xc32/v2.41/bin/bin/../../lib/gcc/pic32c/6.2.1/../../../../pic32c/lib\libpic32c.a(write.o)
 .data          0x00000000        0x0 c:/program files/microchip/xc32/v2.41/bin/bin/../../lib/gcc/pic32c/6.2.1/../../../../pic32c/lib\libpic32c.a(write.o)
 .bss           0x00000000        0x0 c:/program files/microchip/xc32/v2.41/bin/bin/../../lib/gcc/pic32c/6.2.1/../../../../pic32c/lib\libpic32c.a(write.o)
 .text.write    0x00000000       0x40 c:/program files/microchip/xc32/v2.41/bin/bin/../../lib/gcc/pic32c/6.2.1/../../../../pic32c/lib\libpic32c.a(write.o)
 .debug_info    0x00000000      0x1d5 c:/program files/microchip/xc32/v2.41/bin/bin/../../lib/gcc/pic32c/6.2.1/../../../../pic32c/lib\libpic32c.a(write.o)
 .debug_abbrev  0x00000000       0x2a c:/program files/microchip/xc32/v2.41/bin/bin/../../lib/gcc/pic32c/6.2.1/../../../../pic32c/lib\libpic32c.a(write.o)
 .debug_loc     0x00000000       0x14 c:/program files/microchip/xc32/v2.41/bin/bin/../../lib/gcc/pic32c/6.2.1/../../../../pic32c/lib\libpic32c.a(write.o)
 .debug_aranges
                0x00000000       0x20 c:/program files/microchip/xc32/v2.41/bin/bin/../../lib/gcc/pic32c/6.2.1/../../../../pic32c/lib\libpic32c.a(write.o)
 .debug_ranges  0x00000000       0x10 c:/program files/microchip/xc32/v2.41/bin/bin/../../lib/gcc/pic32c/6.2.1/../../../../pic32c/lib\libpic32c.a(write.o)
 .debug_line    0x00000000       0xae c:/program files/microchip/xc32/v2.41/bin/bin/../../lib/gcc/pic32c/6.2.1/../../../../pic32c/lib\libpic32c.a(write.o)
 .debug_str     0x00000000        0x0 c:/program files/microchip/xc32/v2.41/bin/bin/../../lib/gcc/pic32c/6.2.1/../../../../pic32c/lib\libpic32c.a(write.o)
 .comment       0x00000000       0x3d c:/program files/microchip/xc32/v2.41/bin/bin/../../lib/gcc/pic32c/6.2.1/../../../../pic32c/lib\libpic32c.a(write.o)
 .debug_frame   0x00000000       0x2c c:/program files/microchip/xc32/v2.41/bin/bin/../../lib/gcc/pic32c/6.2.1/../../../../pic32c/lib\libpic32c.a(write.o)
 .ARM.attributes
                0x00000000       0x2c c:/program files/microchip/xc32/v2.41/bin/bin/../../lib/gcc/pic32c/6.2.1/../../../../pic32c/lib\libpic32c.a(write.o)
 .text          0x00000000        0x0 c:/program files/microchip/xc32/v2.41/bin/bin/../../lib/gcc/pic32c/6.2.1/crtend.o
 .data          0x00000000        0x0 c:/program files/microchip/xc32/v2.41/bin/bin/../../lib/gcc/pic32c/6.2.1/crtend.o
 .bss           0x00000000        0x0 c:/program files/microchip/xc32/v2.41/bin/bin/../../lib/gcc/pic32c/6.2.1/crtend.o
 .eh_frame      0x00000000        0x4 c:/program files/microchip/xc32/v2.41/bin/bin/../../lib/gcc/pic32c/6.2.1/crtend.o
 .comment       0x00000000       0x3d c:/program files/microchip/xc32/v2.41/bin/bin/../../lib/gcc/pic32c/6.2.1/crtend.o
 .ARM.attributes
                0x00000000       0x2c c:/program files/microchip/xc32/v2.41/bin/bin/../../lib/gcc/pic32c/6.2.1/crtend.o
 .text          0x00000000        0x0 c:/program files/microchip/xc32/v2.41/bin/bin/../../lib/gcc/pic32c/6.2.1/crtn.o
 .data          0x00000000        0x0 c:/program files/microchip/xc32/v2.41/bin/bin/../../lib/gcc/pic32c/6.2.1/crtn.o
 .bss           0x00000000        0x0 c:/program files/microchip/xc32/v2.41/bin/bin/../../lib/gcc/pic32c/6.2.1/crtn.o

Memory Configuration

Name             Origin             Length             Attributes
rom              0x00000000         0x00040000         xrl
ram              0x20000000         0x00008000         xw !r
config_00804000  0x00804000         0x00000004
config_00804004  0x00804004         0x00000004
*default*        0x00000000         0xffffffff

Linker script and memory map

LOAD c:/program files/microchip/xc32/v2.41/bin/bin/../../lib/gcc/pic32c/6.2.1/crti.o
LOAD c:/program files/microchip/xc32/v2.41/bin/bin/../../lib/gcc/pic32c/6.2.1/crtbegin.o
LOAD build/sam_d21_xpro_winc1500/production/_ext/1062439459/drv_spi.o
LOAD build/sam_d21_xpro_winc1500/production/_ext/1115528141/wdrv_winc_eint.o
LOAD build/sam_d21_xpro_winc1500/production/_ext/1115528141/wdrv_winc_gpio.o
LOAD build/sam_d21_xpro_winc1500/production/_ext/1837088568/wdrv_winc_spi.o
LOAD build/sam_d21_xpro_winc1500/production/_ext/418110372/nm_common.o
LOAD build/sam_d21_xpro_winc1500/production/_ext/386821479/m2m_hif.o
LOAD build/sam_d21_xpro_winc1500/production/_ext/386821479/m2m_periph.o
LOAD build/sam_d21_xpro_winc1500/production/_ext/386821479/m2m_wifi.o
LOAD build/sam_d21_xpro_winc1500/production/_ext/386821479/nmasic.o
LOAD build/sam_d21_xpro_winc1500/production/_ext/386821479/nmbus.o
LOAD build/sam_d21_xpro_winc1500/production/_ext/386821479/nmdrv.o
LOAD build/sam_d21_xpro_winc1500/production/_ext/386821479/nmspi.o
LOAD build/sam_d21_xpro_winc1500/production/_ext/386821479/m2m_ota.o
LOAD build/sam_d21_xpro_winc1500/production/_ext/386821479/m2m_ssl.o
LOAD build/sam_d21_xpro_winc1500/production/_ext/39655908/socket.o
LOAD build/sam_d21_xpro_winc1500/production/_ext/39655908/inet_ntop.o
LOAD build/sam_d21_xpro_winc1500/production/_ext/39655908/inet_addr.o
LOAD build/sam_d21_xpro_winc1500/production/_ext/1591721076/spi_flash.o
LOAD build/sam_d21_xpro_winc1500/production/_ext/1591721076/flexible_flash.o
LOAD build/sam_d21_xpro_winc1500/production/_ext/1879120711/wdrv_winc_osal.o
LOAD build/sam_d21_xpro_winc1500/production/_ext/2003669979/wdrv_winc.o
LOAD build/sam_d21_xpro_winc1500/production/_ext/2003669979/wdrv_winc_assoc.o
LOAD build/sam_d21_xpro_winc1500/production/_ext/2003669979/wdrv_winc_authctx.o
LOAD build/sam_d21_xpro_winc1500/production/_ext/2003669979/wdrv_winc_bssctx.o
LOAD build/sam_d21_xpro_winc1500/production/_ext/2003669979/wdrv_winc_bssfind.o
LOAD build/sam_d21_xpro_winc1500/production/_ext/2003669979/wdrv_winc_custie.o
LOAD build/sam_d21_xpro_winc1500/production/_ext/2003669979/wdrv_winc_host_file.o
LOAD build/sam_d21_xpro_winc1500/production/_ext/2003669979/wdrv_winc_httpprovctx.o
LOAD build/sam_d21_xpro_winc1500/production/_ext/2003669979/wdrv_winc_nvm.o
LOAD build/sam_d21_xpro_winc1500/production/_ext/2003669979/wdrv_winc_powersave.o
LOAD build/sam_d21_xpro_winc1500/production/_ext/2003669979/wdrv_winc_socket.o
LOAD build/sam_d21_xpro_winc1500/production/_ext/2003669979/wdrv_winc_softap.o
LOAD build/sam_d21_xpro_winc1500/production/_ext/2003669979/wdrv_winc_ssl.o
LOAD build/sam_d21_xpro_winc1500/production/_ext/2003669979/wdrv_winc_sta.o
LOAD build/sam_d21_xpro_winc1500/production/_ext/2003669979/wdrv_winc_systime.o
LOAD build/sam_d21_xpro_winc1500/production/_ext/2003669979/wdrv_winc_wps.o
LOAD build/sam_d21_xpro_winc1500/production/_ext/1912998524/plib_clock.o
LOAD build/sam_d21_xpro_winc1500/production/_ext/1101428939/plib_eic.o
LOAD build/sam_d21_xpro_winc1500/production/_ext/1910849038/plib_evsys.o
LOAD build/sam_d21_xpro_winc1500/production/_ext/215722156/plib_nvic.o
LOAD build/sam_d21_xpro_winc1500/production/_ext/1311483782/plib_nvmctrl.o
LOAD build/sam_d21_xpro_winc1500/production/_ext/215775307/plib_port.o
LOAD build/sam_d21_xpro_winc1500/production/_ext/1670897031/plib_sercom4_spi_master.o
LOAD build/sam_d21_xpro_winc1500/production/_ext/1242531425/plib_sercom5_usart.o
LOAD build/sam_d21_xpro_winc1500/production/_ext/1143908167/plib_tc3.o
LOAD build/sam_d21_xpro_winc1500/production/_ext/1923882300/platform_sercom_data.o
LOAD build/sam_d21_xpro_winc1500/production/_ext/1966573984/xc32_monitor.o
LOAD build/sam_d21_xpro_winc1500/production/_ext/676678561/sys_dma.o
LOAD build/sam_d21_xpro_winc1500/production/_ext/720072173/sys_int.o
LOAD build/sam_d21_xpro_winc1500/production/_ext/1751631207/sys_time.o
LOAD build/sam_d21_xpro_winc1500/production/_ext/281389274/initialization.o
LOAD build/sam_d21_xpro_winc1500/production/_ext/281389274/interrupts.o
LOAD build/sam_d21_xpro_winc1500/production/_ext/281389274/exceptions.o
LOAD build/sam_d21_xpro_winc1500/production/_ext/281389274/startup_xc32.o
LOAD build/sam_d21_xpro_winc1500/production/_ext/281389274/libc_syscalls.o
LOAD build/sam_d21_xpro_winc1500/production/_ext/281389274/tasks.o
LOAD build/sam_d21_xpro_winc1500/production/_ext/1756295213/platform_sercom.o
LOAD build/sam_d21_xpro_winc1500/production/_ext/1891040070/serial_bridge.o
LOAD build/sam_d21_xpro_winc1500/production/_ext/1360937237/main.o
LOAD build/sam_d21_xpro_winc1500/production/_ext/1360937237/app.o
                0x00000001                __MPLAB_BUILD = 0x1
                0x00040000                __rom_end = (ORIGIN (rom) + LENGTH (rom))
                0x20008000                __ram_end = (ORIGIN (ram) + LENGTH (ram))

.config_00804000
                0x00804000        0x4
 *(.config_00804000)
 .config_00804000
                0x00804000        0x4 build/sam_d21_xpro_winc1500/production/_ext/281389274/initialization.o

.config_00804004
                0x00804004        0x4
 *(.config_00804004)
 .config_00804004
                0x00804004        0x4 build/sam_d21_xpro_winc1500/production/_ext/281389274/initialization.o

.vectors        0x00000000       0xb0
                0x00000000                . = ALIGN (0x4)
                0x00000000                _sfixed = .
 *(.vectors .vectors.* .vectors_default .vectors_default.*)
 .vectors       0x00000000       0xb0 build/sam_d21_xpro_winc1500/production/_ext/281389274/interrupts.o
                0x00000000                exception_table
 *(.isr_vector)
 *(.reset*)
 *(.after_vectors)

.text           0x000000b0       0x20
                0x000000b0                . = ALIGN (0x4)
 *(.glue_7t)
 .glue_7t       0x000000b0        0x0 linker stubs
 *(.glue_7)
 .glue_7        0x000000b0        0x0 linker stubs
 *(.gnu.linkonce.r.*)
 *(.ARM.extab* .gnu.linkonce.armextab.*)
                0x000000b0                . = ALIGN (0x4)
 *(.init)
 .init          0x000000b0        0x4 c:/program files/microchip/xc32/v2.41/bin/bin/../../lib/gcc/pic32c/6.2.1/crti.o
                0x000000b0                _init
 .init          0x000000b4        0x8 c:/program files/microchip/xc32/v2.41/bin/bin/../../lib/gcc/pic32c/6.2.1/crtn.o
                0x000000bc                . = ALIGN (0x4)
                0x000000bc                __preinit_array_start = .
 *(.preinit_array)
                0x000000bc                __preinit_array_end = .
                0x000000bc                . = ALIGN (0x4)
                0x000000bc                __init_array_start = .
 *(SORT(.init_array.*))
 *(.init_array)
 .init_array    0x000000bc        0x4 c:/program files/microchip/xc32/v2.41/bin/bin/../../lib/gcc/pic32c/6.2.1/crtbegin.o
                0x000000c0                __init_array_end = .
                0x000000c0                . = ALIGN (0x4)
 *crtbegin.o(.ctors)
 *(EXCLUDE_FILE(*crtend.o) .ctors)
 *(SORT(.ctors.*))
 *crtend.o(.ctors)
                0x000000c0                . = ALIGN (0x4)
 *(.fini)
 .fini          0x000000c0        0x4 c:/program files/microchip/xc32/v2.41/bin/bin/../../lib/gcc/pic32c/6.2.1/crti.o
                0x000000c0                _fini
 .fini          0x000000c4        0x8 c:/program files/microchip/xc32/v2.41/bin/bin/../../lib/gcc/pic32c/6.2.1/crtn.o
                0x000000cc                . = ALIGN (0x4)
                0x000000cc                __fini_array_start = .
 *(.fini_array)
 .fini_array    0x000000cc        0x4 c:/program files/microchip/xc32/v2.41/bin/bin/../../lib/gcc/pic32c/6.2.1/crtbegin.o
 *(SORT(.fini_array.*))
                0x000000d0                __fini_array_end = .
 *crtbegin.o(.dtors)
 *(EXCLUDE_FILE(*crtend.o) .dtors)
 *(SORT(.dtors.*))
 *crtend.o(.dtors)
                0x000000d0                . = ALIGN (0x4)
                0x000000d0                _efixed = .
                [!provide]                PROVIDE (__exidx_start, .)

.ARM.exidx      0x000000d0        0x8
 *(.ARM.exidx* .gnu.linkonce.armexidx.*)
 .ARM.exidx     0x000000d0        0x8 c:/program files/microchip/xc32/v2.41/bin/bin/../../lib/gcc/pic32c/6.2.1\libgcc.a(_udivmoddi4.o)
                [!provide]                PROVIDE (__exidx_end, .)
                0x000000d8                . = ALIGN (0x4)
                0x000000d8                _etext = .

.bss            0x20000000      0x160
                0x20000000                . = ALIGN (0x4)
                0x20000000                __bss_start__ = .
                0x20000000                _sbss = .
                0x20000000                _szero = .
 *(COMMON)
 COMMON         0x20000000       0x28 build/sam_d21_xpro_winc1500/production/_ext/386821479/m2m_hif.o
                0x20000000                gstrHifCxt
 COMMON         0x20000028        0x4 build/sam_d21_xpro_winc1500/production/_ext/2003669979/wdrv_winc.o
                0x20000028                pfWINCDebugPrintCb
 COMMON         0x2000002c       0xc0 build/sam_d21_xpro_winc1500/production/_ext/1101428939/plib_eic.o
                0x2000002c                eicCallbackObject
 COMMON         0x200000ec       0x2c build/sam_d21_xpro_winc1500/production/_ext/1670897031/plib_sercom4_spi_master.o
                0x200000ec                sercom4SPIObj
 COMMON         0x20000118       0x30 build/sam_d21_xpro_winc1500/production/_ext/1242531425/plib_sercom5_usart.o
                0x20000118                sercom5USARTObj
 COMMON         0x20000148        0x8 build/sam_d21_xpro_winc1500/production/_ext/1143908167/plib_tc3.o
                0x20000148                TC3_CallbackObject
 COMMON         0x20000150        0xc build/sam_d21_xpro_winc1500/production/_ext/281389274/initialization.o
                0x20000150                sysObj
 COMMON         0x2000015c        0x2 build/sam_d21_xpro_winc1500/production/_ext/1360937237/app.o
                0x2000015c                appData
                0x20000160                . = ALIGN (0x4)
 *fill*         0x2000015e        0x2 
                0x20000160                __bss_end__ = .
                0x20000160                _ebss = .
                0x20000160                _ezero = .
                0x20000160                . = ALIGN (0x4)
                0x20000160                _end = .
                0x20007fff                _ram_end_ = ((ORIGIN (ram) + LENGTH (ram)) - 0x1)
                0x00002710                _min_heap_size = 0x2710
START GROUP
LOAD c:/program files/microchip/xc32/v2.41/bin/bin/../../lib/gcc/pic32c/6.2.1/../../../../pic32c/lib\libpic32c.a
LOAD c:/program files/microchip/xc32/v2.41/bin/bin/../../lib/gcc/pic32c/6.2.1\libgcc.a
LOAD c:/program files/microchip/xc32/v2.41/bin/bin/../../lib/gcc/pic32c/6.2.1/../../../../pic32c/lib\libm_nano.a
LOAD c:/program files/microchip/xc32/v2.41/bin/bin/../../lib/gcc/pic32c/6.2.1/../../../../pic32c/lib\libc_nano.a
END GROUP
LOAD c:/program files/microchip/xc32/v2.41/bin/bin/../../lib/gcc/pic32c/6.2.1/crtend.o
LOAD c:/program files/microchip/xc32/v2.41/bin/bin/../../lib/gcc/pic32c/6.2.1/crtn.o
OUTPUT(dist/sam_d21_xpro_winc1500/production/sam_d21_xpro_winc1500.X.production.elf elf32-littlearm)
LOAD stack
LOAD data_init

.ARM.attributes
                0x00000000       0x28
 .ARM.attributes
                0x00000000       0x1e c:/program files/microchip/xc32/v2.41/bin/bin/../../lib/gcc/pic32c/6.2.1/crti.o
 .ARM.attributes
                0x0000001e       0x2c c:/program files/microchip/xc32/v2.41/bin/bin/../../lib/gcc/pic32c/6.2.1/crtbegin.o
 .ARM.attributes
                0x0000004a       0x32 build/sam_d21_xpro_winc1500/production/_ext/1062439459/drv_spi.o
 .ARM.attributes
                0x0000007c       0x32 build/sam_d21_xpro_winc1500/production/_ext/1115528141/wdrv_winc_gpio.o
 .ARM.attributes
                0x000000ae       0x32 build/sam_d21_xpro_winc1500/production/_ext/1837088568/wdrv_winc_spi.o
 .ARM.attributes
                0x000000e0       0x32 build/sam_d21_xpro_winc1500/production/_ext/418110372/nm_common.o
 .ARM.attributes
                0x00000112       0x32 build/sam_d21_xpro_winc1500/production/_ext/386821479/m2m_hif.o
 .ARM.attributes
                0x00000144       0x32 build/sam_d21_xpro_winc1500/production/_ext/386821479/m2m_wifi.o
 .ARM.attributes
                0x00000176       0x32 build/sam_d21_xpro_winc1500/production/_ext/386821479/nmasic.o
 .ARM.attributes
                0x000001a8       0x32 build/sam_d21_xpro_winc1500/production/_ext/386821479/nmbus.o
 .ARM.attributes
                0x000001da       0x32 build/sam_d21_xpro_winc1500/production/_ext/386821479/nmdrv.o
 .ARM.attributes
                0x0000020c       0x32 build/sam_d21_xpro_winc1500/production/_ext/386821479/nmspi.o
 .ARM.attributes
                0x0000023e       0x32 build/sam_d21_xpro_winc1500/production/_ext/1879120711/wdrv_winc_osal.o
 .ARM.attributes
                0x00000270       0x32 build/sam_d21_xpro_winc1500/production/_ext/2003669979/wdrv_winc.o
 .ARM.attributes
                0x000002a2       0x32 build/sam_d21_xpro_winc1500/production/_ext/1912998524/plib_clock.o
 .ARM.attributes
                0x000002d4       0x32 build/sam_d21_xpro_winc1500/production/_ext/1101428939/plib_eic.o
 .ARM.attributes
                0x00000306       0x32 build/sam_d21_xpro_winc1500/production/_ext/1910849038/plib_evsys.o
 .ARM.attributes
                0x00000338       0x32 build/sam_d21_xpro_winc1500/production/_ext/215722156/plib_nvic.o
 .ARM.attributes
                0x0000036a       0x32 build/sam_d21_xpro_winc1500/production/_ext/1311483782/plib_nvmctrl.o
 .ARM.attributes
                0x0000039c       0x32 build/sam_d21_xpro_winc1500/production/_ext/215775307/plib_port.o
 .ARM.attributes
                0x000003ce       0x32 build/sam_d21_xpro_winc1500/production/_ext/1670897031/plib_sercom4_spi_master.o
 .ARM.attributes
                0x00000400       0x32 build/sam_d21_xpro_winc1500/production/_ext/1242531425/plib_sercom5_usart.o
 .ARM.attributes
                0x00000432       0x32 build/sam_d21_xpro_winc1500/production/_ext/1143908167/plib_tc3.o
 .ARM.attributes
                0x00000464       0x32 build/sam_d21_xpro_winc1500/production/_ext/1923882300/platform_sercom_data.o
 .ARM.attributes
                0x00000496       0x32 build/sam_d21_xpro_winc1500/production/_ext/676678561/sys_dma.o
 .ARM.attributes
                0x000004c8       0x32 build/sam_d21_xpro_winc1500/production/_ext/720072173/sys_int.o
 .ARM.attributes
                0x000004fa       0x32 build/sam_d21_xpro_winc1500/production/_ext/1751631207/sys_time.o
 .ARM.attributes
                0x0000052c       0x32 build/sam_d21_xpro_winc1500/production/_ext/281389274/initialization.o
 .ARM.attributes
                0x0000055e       0x32 build/sam_d21_xpro_winc1500/production/_ext/281389274/interrupts.o
 .ARM.attributes
                0x00000590       0x32 build/sam_d21_xpro_winc1500/production/_ext/281389274/exceptions.o
 .ARM.attributes
                0x000005c2       0x32 build/sam_d21_xpro_winc1500/production/_ext/281389274/startup_xc32.o
 .ARM.attributes
                0x000005f4       0x32 build/sam_d21_xpro_winc1500/production/_ext/281389274/tasks.o
 .ARM.attributes
                0x00000626       0x32 build/sam_d21_xpro_winc1500/production/_ext/1756295213/platform_sercom.o
 .ARM.attributes
                0x00000658       0x32 build/sam_d21_xpro_winc1500/production/_ext/1891040070/serial_bridge.o
 .ARM.attributes
                0x0000068a       0x32 build/sam_d21_xpro_winc1500/production/_ext/1360937237/main.o
 .ARM.attributes
                0x000006bc       0x32 build/sam_d21_xpro_winc1500/production/_ext/1360937237/app.o
 .ARM.attributes
                0x000006ee       0x2c c:/program files/microchip/xc32/v2.41/bin/bin/../../lib/gcc/pic32c/6.2.1/../../../../pic32c/lib\libpic32c.a(data_init.o)
 .ARM.attributes
                0x0000071a       0x1e c:/program files/microchip/xc32/v2.41/bin/bin/../../lib/gcc/pic32c/6.2.1\libgcc.a(_udivsi3.o)
 .ARM.attributes
                0x00000738       0x1e c:/program files/microchip/xc32/v2.41/bin/bin/../../lib/gcc/pic32c/6.2.1\libgcc.a(_divsi3.o)
 .ARM.attributes
                0x00000756       0x1e c:/program files/microchip/xc32/v2.41/bin/bin/../../lib/gcc/pic32c/6.2.1\libgcc.a(_dvmd_tls.o)
 .ARM.attributes
                0x00000774       0x1e c:/program files/microchip/xc32/v2.41/bin/bin/../../lib/gcc/pic32c/6.2.1\libgcc.a(_aeabi_uldivmod.o)
 .ARM.attributes
                0x00000792       0x2c c:/program files/microchip/xc32/v2.41/bin/bin/../../lib/gcc/pic32c/6.2.1\libgcc.a(_muldi3.o)
 .ARM.attributes
                0x000007be       0x2c c:/program files/microchip/xc32/v2.41/bin/bin/../../lib/gcc/pic32c/6.2.1\libgcc.a(_udivmoddi4.o)
 .ARM.attributes
                0x000007ea       0x1e c:/program files/microchip/xc32/v2.41/bin/bin/../../lib/gcc/pic32c/6.2.1\libgcc.a(_lshrdi3.o)
 .ARM.attributes
                0x00000808       0x1e c:/program files/microchip/xc32/v2.41/bin/bin/../../lib/gcc/pic32c/6.2.1\libgcc.a(_ashldi3.o)
 .ARM.attributes
                0x00000826       0x1e c:/program files/microchip/xc32/v2.41/bin/bin/../../lib/gcc/pic32c/6.2.1\libgcc.a(_clzdi2.o)
 .ARM.attributes
                0x00000844       0x1e c:/program files/microchip/xc32/v2.41/bin/bin/../../lib/gcc/pic32c/6.2.1\libgcc.a(_clzsi2.o)
 .ARM.attributes
                0x00000862       0x2c c:/program files/microchip/xc32/v2.41/bin/bin/../../lib/gcc/pic32c/6.2.1/../../../../pic32c/lib\libc_nano.a(lib_a-init.o)
 .ARM.attributes
                0x0000088e       0x2c c:/program files/microchip/xc32/v2.41/bin/bin/../../lib/gcc/pic32c/6.2.1/../../../../pic32c/lib\libc_nano.a(lib_a-memcpy-stub.o)
 .ARM.attributes
                0x000008ba       0x2c c:/program files/microchip/xc32/v2.41/bin/bin/../../lib/gcc/pic32c/6.2.1/../../../../pic32c/lib\libc_nano.a(lib_a-memset.o)
 .ARM.attributes
                0x000008e6       0x1e c:/program files/microchip/xc32/v2.41/bin/bin/../../lib/gcc/pic32c/6.2.1/crtn.o

.comment        0x00000000       0x3c
 .comment       0x00000000       0x3c c:/program files/microchip/xc32/v2.41/bin/bin/../../lib/gcc/pic32c/6.2.1/crtbegin.o
                                 0x3d (size before relaxing)
 .comment       0x0000003c       0x3d build/sam_d21_xpro_winc1500/production/_ext/1062439459/drv_spi.o
 .comment       0x0000003c       0x3d build/sam_d21_xpro_winc1500/production/_ext/1115528141/wdrv_winc_gpio.o
 .comment       0x0000003c       0x3d build/sam_d21_xpro_winc1500/production/_ext/1837088568/wdrv_winc_spi.o
 .comment       0x0000003c       0x3d build/sam_d21_xpro_winc1500/production/_ext/418110372/nm_common.o
 .comment       0x0000003c       0x3d build/sam_d21_xpro_winc1500/production/_ext/386821479/m2m_hif.o
 .comment       0x0000003c       0x3d build/sam_d21_xpro_winc1500/production/_ext/386821479/m2m_wifi.o
 .comment       0x0000003c       0x3d build/sam_d21_xpro_winc1500/production/_ext/386821479/nmasic.o
 .comment       0x0000003c       0x3d build/sam_d21_xpro_winc1500/production/_ext/386821479/nmbus.o
 .comment       0x0000003c       0x3d build/sam_d21_xpro_winc1500/production/_ext/386821479/nmdrv.o
 .comment       0x0000003c       0x3d build/sam_d21_xpro_winc1500/production/_ext/386821479/nmspi.o
 .comment       0x0000003c       0x3d build/sam_d21_xpro_winc1500/production/_ext/1879120711/wdrv_winc_osal.o
 .comment       0x0000003c       0x3d build/sam_d21_xpro_winc1500/production/_ext/2003669979/wdrv_winc.o
 .comment       0x0000003c       0x3d build/sam_d21_xpro_winc1500/production/_ext/1912998524/plib_clock.o
 .comment       0x0000003c       0x3d build/sam_d21_xpro_winc1500/production/_ext/1101428939/plib_eic.o
 .comment       0x0000003c       0x3d build/sam_d21_xpro_winc1500/production/_ext/1910849038/plib_evsys.o
 .comment       0x0000003c       0x3d build/sam_d21_xpro_winc1500/production/_ext/215722156/plib_nvic.o
 .comment       0x0000003c       0x3d build/sam_d21_xpro_winc1500/production/_ext/1311483782/plib_nvmctrl.o
 .comment       0x0000003c       0x3d build/sam_d21_xpro_winc1500/production/_ext/215775307/plib_port.o
 .comment       0x0000003c       0x3d build/sam_d21_xpro_winc1500/production/_ext/1670897031/plib_sercom4_spi_master.o
 .comment       0x0000003c       0x3d build/sam_d21_xpro_winc1500/production/_ext/1242531425/plib_sercom5_usart.o
 .comment       0x0000003c       0x3d build/sam_d21_xpro_winc1500/production/_ext/1143908167/plib_tc3.o
 .comment       0x0000003c       0x3d build/sam_d21_xpro_winc1500/production/_ext/1923882300/platform_sercom_data.o
 .comment       0x0000003c       0x3d build/sam_d21_xpro_winc1500/production/_ext/676678561/sys_dma.o
 .comment       0x0000003c       0x3d build/sam_d21_xpro_winc1500/production/_ext/720072173/sys_int.o
 .comment       0x0000003c       0x3d build/sam_d21_xpro_winc1500/production/_ext/1751631207/sys_time.o
 .comment       0x0000003c       0x3d build/sam_d21_xpro_winc1500/production/_ext/281389274/initialization.o
 .comment       0x0000003c       0x3d build/sam_d21_xpro_winc1500/production/_ext/281389274/interrupts.o
 .comment       0x0000003c       0x3d build/sam_d21_xpro_winc1500/production/_ext/281389274/exceptions.o
 .comment       0x0000003c       0x3d build/sam_d21_xpro_winc1500/production/_ext/281389274/startup_xc32.o
 .comment       0x0000003c       0x3d build/sam_d21_xpro_winc1500/production/_ext/281389274/tasks.o
 .comment       0x0000003c       0x3d build/sam_d21_xpro_winc1500/production/_ext/1756295213/platform_sercom.o
 .comment       0x0000003c       0x3d build/sam_d21_xpro_winc1500/production/_ext/1891040070/serial_bridge.o
 .comment       0x0000003c       0x3d build/sam_d21_xpro_winc1500/production/_ext/1360937237/main.o
 .comment       0x0000003c       0x3d build/sam_d21_xpro_winc1500/production/_ext/1360937237/app.o
 .comment       0x0000003c       0x3d c:/program files/microchip/xc32/v2.41/bin/bin/../../lib/gcc/pic32c/6.2.1/../../../../pic32c/lib\libpic32c.a(data_init.o)
 .comment       0x0000003c       0x3d c:/program files/microchip/xc32/v2.41/bin/bin/../../lib/gcc/pic32c/6.2.1\libgcc.a(_muldi3.o)
 .comment       0x0000003c       0x3d c:/program files/microchip/xc32/v2.41/bin/bin/../../lib/gcc/pic32c/6.2.1\libgcc.a(_udivmoddi4.o)
 .comment       0x0000003c       0x3d c:/program files/microchip/xc32/v2.41/bin/bin/../../lib/gcc/pic32c/6.2.1/../../../../pic32c/lib\libc_nano.a(lib_a-init.o)
 .comment       0x0000003c       0x3d c:/program files/microchip/xc32/v2.41/bin/bin/../../lib/gcc/pic32c/6.2.1/../../../../pic32c/lib\libc_nano.a(lib_a-memcpy-stub.o)
 .comment       0x0000003c       0x3d c:/program files/microchip/xc32/v2.41/bin/bin/../../lib/gcc/pic32c/6.2.1/../../../../pic32c/lib\libc_nano.a(lib_a-memset.o)

.debug_info     0x00000000    0x404f1
 .debug_info    0x00000000     0x41ee build/sam_d21_xpro_winc1500/production/_ext/1062439459/drv_spi.o
 .debug_info    0x000041ee     0x1293 build/sam_d21_xpro_winc1500/production/_ext/1115528141/wdrv_winc_gpio.o
 .debug_info    0x00005481     0x1e10 build/sam_d21_xpro_winc1500/production/_ext/1837088568/wdrv_winc_spi.o
 .debug_info    0x00007291     0x1157 build/sam_d21_xpro_winc1500/production/_ext/418110372/nm_common.o
 .debug_info    0x000083e8     0x22e9 build/sam_d21_xpro_winc1500/production/_ext/386821479/m2m_hif.o
 .debug_info    0x0000a6d1     0x7a18 build/sam_d21_xpro_winc1500/production/_ext/386821479/m2m_wifi.o
 .debug_info    0x000120e9     0x223b build/sam_d21_xpro_winc1500/production/_ext/386821479/nmasic.o
 .debug_info    0x00014324     0x1716 build/sam_d21_xpro_winc1500/production/_ext/386821479/nmbus.o
 .debug_info    0x00015a3a     0x1958 build/sam_d21_xpro_winc1500/production/_ext/386821479/nmdrv.o
 .debug_info    0x00017392     0x243f build/sam_d21_xpro_winc1500/production/_ext/386821479/nmspi.o
 .debug_info    0x000197d1     0x10c1 build/sam_d21_xpro_winc1500/production/_ext/1879120711/wdrv_winc_osal.o
 .debug_info    0x0001a892     0x6018 build/sam_d21_xpro_winc1500/production/_ext/2003669979/wdrv_winc.o
 .debug_info    0x000208aa      0xa76 build/sam_d21_xpro_winc1500/production/_ext/1912998524/plib_clock.o
 .debug_info    0x00021320      0x69f build/sam_d21_xpro_winc1500/production/_ext/1101428939/plib_eic.o
 .debug_info    0x000219bf      0x30d build/sam_d21_xpro_winc1500/production/_ext/1910849038/plib_evsys.o
 .debug_info    0x00021ccc      0x8ba build/sam_d21_xpro_winc1500/production/_ext/215722156/plib_nvic.o
 .debug_info    0x00022586     0x1302 build/sam_d21_xpro_winc1500/production/_ext/1311483782/plib_nvmctrl.o
 .debug_info    0x00023888      0x7c1 build/sam_d21_xpro_winc1500/production/_ext/215775307/plib_port.o
 .debug_info    0x00024049     0x1316 build/sam_d21_xpro_winc1500/production/_ext/1670897031/plib_sercom4_spi_master.o
 .debug_info    0x0002535f     0x16d2 build/sam_d21_xpro_winc1500/production/_ext/1242531425/plib_sercom5_usart.o
 .debug_info    0x00026a31      0xc1b build/sam_d21_xpro_winc1500/production/_ext/1143908167/plib_tc3.o
 .debug_info    0x0002764c     0x1838 build/sam_d21_xpro_winc1500/production/_ext/1923882300/platform_sercom_data.o
 .debug_info    0x00028e84      0x6a6 build/sam_d21_xpro_winc1500/production/_ext/676678561/sys_dma.o
 .debug_info    0x0002952a      0x9a7 build/sam_d21_xpro_winc1500/production/_ext/720072173/sys_int.o
 .debug_info    0x00029ed1     0x3236 build/sam_d21_xpro_winc1500/production/_ext/1751631207/sys_time.o
 .debug_info    0x0002d107     0x2b3d build/sam_d21_xpro_winc1500/production/_ext/281389274/initialization.o
 .debug_info    0x0002fc44     0x1543 build/sam_d21_xpro_winc1500/production/_ext/281389274/interrupts.o
 .debug_info    0x00031187      0xfb4 build/sam_d21_xpro_winc1500/production/_ext/281389274/exceptions.o
 .debug_info    0x0003213b     0x1142 build/sam_d21_xpro_winc1500/production/_ext/281389274/startup_xc32.o
 .debug_info    0x0003327d      0xfb0 build/sam_d21_xpro_winc1500/production/_ext/281389274/tasks.o
 .debug_info    0x0003422d     0x2e8a build/sam_d21_xpro_winc1500/production/_ext/1756295213/platform_sercom.o
 .debug_info    0x000370b7     0x1669 build/sam_d21_xpro_winc1500/production/_ext/1891040070/serial_bridge.o
 .debug_info    0x00038720      0xf9a build/sam_d21_xpro_winc1500/production/_ext/1360937237/main.o
 .debug_info    0x000396ba     0x17e6 build/sam_d21_xpro_winc1500/production/_ext/1360937237/app.o
 .debug_info    0x0003aea0      0x1f0 c:/program files/microchip/xc32/v2.41/bin/bin/../../lib/gcc/pic32c/6.2.1/../../../../pic32c/lib\libpic32c.a(data_init.o)
 .debug_info    0x0003b090       0xee c:/program files/microchip/xc32/v2.41/bin/bin/../../lib/gcc/pic32c/6.2.1\libgcc.a(_udivsi3.o)
 .debug_info    0x0003b17e       0xee c:/program files/microchip/xc32/v2.41/bin/bin/../../lib/gcc/pic32c/6.2.1\libgcc.a(_divsi3.o)
 .debug_info    0x0003b26c       0xee c:/program files/microchip/xc32/v2.41/bin/bin/../../lib/gcc/pic32c/6.2.1\libgcc.a(_dvmd_tls.o)
 .debug_info    0x0003b35a       0xee c:/program files/microchip/xc32/v2.41/bin/bin/../../lib/gcc/pic32c/6.2.1\libgcc.a(_aeabi_uldivmod.o)
 .debug_info    0x0003b448     0x13d1 c:/program files/microchip/xc32/v2.41/bin/bin/../../lib/gcc/pic32c/6.2.1\libgcc.a(_muldi3.o)
 .debug_info    0x0003c819     0x132c c:/program files/microchip/xc32/v2.41/bin/bin/../../lib/gcc/pic32c/6.2.1\libgcc.a(_udivmoddi4.o)
 .debug_info    0x0003db45       0xee c:/program files/microchip/xc32/v2.41/bin/bin/../../lib/gcc/pic32c/6.2.1\libgcc.a(_lshrdi3.o)
 .debug_info    0x0003dc33       0xee c:/program files/microchip/xc32/v2.41/bin/bin/../../lib/gcc/pic32c/6.2.1\libgcc.a(_ashldi3.o)
 .debug_info    0x0003dd21       0xee c:/program files/microchip/xc32/v2.41/bin/bin/../../lib/gcc/pic32c/6.2.1\libgcc.a(_clzdi2.o)
 .debug_info    0x0003de0f       0xee c:/program files/microchip/xc32/v2.41/bin/bin/../../lib/gcc/pic32c/6.2.1\libgcc.a(_clzsi2.o)
 .debug_info    0x0003defd      0x359 c:/program files/microchip/xc32/v2.41/bin/bin/../../lib/gcc/pic32c/6.2.1/../../../../pic32c/lib\libc_nano.a(lib_a-init.o)
 .debug_info    0x0003e256      0xdb3 c:/program files/microchip/xc32/v2.41/bin/bin/../../lib/gcc/pic32c/6.2.1/../../../../pic32c/lib\libc_nano.a(lib_a-memcpy-stub.o)
 .debug_info    0x0003f009     0x14e8 c:/program files/microchip/xc32/v2.41/bin/bin/../../lib/gcc/pic32c/6.2.1/../../../../pic32c/lib\libc_nano.a(lib_a-memset.o)

.debug_abbrev   0x00000000     0x6038
 .debug_abbrev  0x00000000      0x551 build/sam_d21_xpro_winc1500/production/_ext/1062439459/drv_spi.o
 .debug_abbrev  0x00000551      0x1c0 build/sam_d21_xpro_winc1500/production/_ext/1115528141/wdrv_winc_gpio.o
 .debug_abbrev  0x00000711      0x349 build/sam_d21_xpro_winc1500/production/_ext/1837088568/wdrv_winc_spi.o
 .debug_abbrev  0x00000a5a      0x245 build/sam_d21_xpro_winc1500/production/_ext/418110372/nm_common.o
 .debug_abbrev  0x00000c9f      0x514 build/sam_d21_xpro_winc1500/production/_ext/386821479/m2m_hif.o
 .debug_abbrev  0x000011b3      0x496 build/sam_d21_xpro_winc1500/production/_ext/386821479/m2m_wifi.o
 .debug_abbrev  0x00001649      0x362 build/sam_d21_xpro_winc1500/production/_ext/386821479/nmasic.o
 .debug_abbrev  0x000019ab      0x2fe build/sam_d21_xpro_winc1500/production/_ext/386821479/nmbus.o
 .debug_abbrev  0x00001ca9      0x2ae build/sam_d21_xpro_winc1500/production/_ext/386821479/nmdrv.o
 .debug_abbrev  0x00001f57      0x42c build/sam_d21_xpro_winc1500/production/_ext/386821479/nmspi.o
 .debug_abbrev  0x00002383      0x207 build/sam_d21_xpro_winc1500/production/_ext/1879120711/wdrv_winc_osal.o
 .debug_abbrev  0x0000258a      0x54f build/sam_d21_xpro_winc1500/production/_ext/2003669979/wdrv_winc.o
 .debug_abbrev  0x00002ad9      0x142 build/sam_d21_xpro_winc1500/production/_ext/1912998524/plib_clock.o
 .debug_abbrev  0x00002c1b      0x186 build/sam_d21_xpro_winc1500/production/_ext/1101428939/plib_eic.o
 .debug_abbrev  0x00002da1       0x39 build/sam_d21_xpro_winc1500/production/_ext/1910849038/plib_evsys.o
 .debug_abbrev  0x00002dda      0x144 build/sam_d21_xpro_winc1500/production/_ext/215722156/plib_nvic.o
 .debug_abbrev  0x00002f1e      0x26a build/sam_d21_xpro_winc1500/production/_ext/1311483782/plib_nvmctrl.o
 .debug_abbrev  0x00003188      0x14f build/sam_d21_xpro_winc1500/production/_ext/215775307/plib_port.o
 .debug_abbrev  0x000032d7      0x23b build/sam_d21_xpro_winc1500/production/_ext/1670897031/plib_sercom4_spi_master.o
 .debug_abbrev  0x00003512      0x33e build/sam_d21_xpro_winc1500/production/_ext/1242531425/plib_sercom5_usart.o
 .debug_abbrev  0x00003850      0x1b8 build/sam_d21_xpro_winc1500/production/_ext/1143908167/plib_tc3.o
 .debug_abbrev  0x00003a08      0x1d0 build/sam_d21_xpro_winc1500/production/_ext/1923882300/platform_sercom_data.o
 .debug_abbrev  0x00003bd8       0x99 build/sam_d21_xpro_winc1500/production/_ext/676678561/sys_dma.o
 .debug_abbrev  0x00003c71      0x1df build/sam_d21_xpro_winc1500/production/_ext/720072173/sys_int.o
 .debug_abbrev  0x00003e50      0x5bb build/sam_d21_xpro_winc1500/production/_ext/1751631207/sys_time.o
 .debug_abbrev  0x0000440b      0x289 build/sam_d21_xpro_winc1500/production/_ext/281389274/initialization.o
 .debug_abbrev  0x00004694      0x1c9 build/sam_d21_xpro_winc1500/production/_ext/281389274/interrupts.o
 .debug_abbrev  0x0000485d      0x1af build/sam_d21_xpro_winc1500/production/_ext/281389274/exceptions.o
 .debug_abbrev  0x00004a0c      0x1f4 build/sam_d21_xpro_winc1500/production/_ext/281389274/startup_xc32.o
 .debug_abbrev  0x00004c00      0x1dd build/sam_d21_xpro_winc1500/production/_ext/281389274/tasks.o
 .debug_abbrev  0x00004ddd      0x457 build/sam_d21_xpro_winc1500/production/_ext/1756295213/platform_sercom.o
 .debug_abbrev  0x00005234      0x2d2 build/sam_d21_xpro_winc1500/production/_ext/1891040070/serial_bridge.o
 .debug_abbrev  0x00005506      0x1e6 build/sam_d21_xpro_winc1500/production/_ext/1360937237/main.o
 .debug_abbrev  0x000056ec      0x242 build/sam_d21_xpro_winc1500/production/_ext/1360937237/app.o
 .debug_abbrev  0x0000592e       0x2a c:/program files/microchip/xc32/v2.41/bin/bin/../../lib/gcc/pic32c/6.2.1/../../../../pic32c/lib\libpic32c.a(data_init.o)
 .debug_abbrev  0x00005958       0x14 c:/program files/microchip/xc32/v2.41/bin/bin/../../lib/gcc/pic32c/6.2.1\libgcc.a(_udivsi3.o)
 .debug_abbrev  0x0000596c       0x14 c:/program files/microchip/xc32/v2.41/bin/bin/../../lib/gcc/pic32c/6.2.1\libgcc.a(_divsi3.o)
 .debug_abbrev  0x00005980       0x14 c:/program files/microchip/xc32/v2.41/bin/bin/../../lib/gcc/pic32c/6.2.1\libgcc.a(_dvmd_tls.o)
 .debug_abbrev  0x00005994       0x14 c:/program files/microchip/xc32/v2.41/bin/bin/../../lib/gcc/pic32c/6.2.1\libgcc.a(_aeabi_uldivmod.o)
 .debug_abbrev  0x000059a8      0x176 c:/program files/microchip/xc32/v2.41/bin/bin/../../lib/gcc/pic32c/6.2.1\libgcc.a(_muldi3.o)
 .debug_abbrev  0x00005b1e      0x13b c:/program files/microchip/xc32/v2.41/bin/bin/../../lib/gcc/pic32c/6.2.1\libgcc.a(_udivmoddi4.o)
 .debug_abbrev  0x00005c59       0x14 c:/program files/microchip/xc32/v2.41/bin/bin/../../lib/gcc/pic32c/6.2.1\libgcc.a(_lshrdi3.o)
 .debug_abbrev  0x00005c6d       0x14 c:/program files/microchip/xc32/v2.41/bin/bin/../../lib/gcc/pic32c/6.2.1\libgcc.a(_ashldi3.o)
 .debug_abbrev  0x00005c81       0x14 c:/program files/microchip/xc32/v2.41/bin/bin/../../lib/gcc/pic32c/6.2.1\libgcc.a(_clzdi2.o)
 .debug_abbrev  0x00005c95       0x14 c:/program files/microchip/xc32/v2.41/bin/bin/../../lib/gcc/pic32c/6.2.1\libgcc.a(_clzsi2.o)
 .debug_abbrev  0x00005ca9       0xa3 c:/program files/microchip/xc32/v2.41/bin/bin/../../lib/gcc/pic32c/6.2.1/../../../../pic32c/lib\libc_nano.a(lib_a-init.o)
 .debug_abbrev  0x00005d4c      0x17c c:/program files/microchip/xc32/v2.41/bin/bin/../../lib/gcc/pic32c/6.2.1/../../../../pic32c/lib\libc_nano.a(lib_a-memcpy-stub.o)
 .debug_abbrev  0x00005ec8      0x170 c:/program files/microchip/xc32/v2.41/bin/bin/../../lib/gcc/pic32c/6.2.1/../../../../pic32c/lib\libc_nano.a(lib_a-memset.o)

.debug_loc      0x00000000     0xe91c
 .debug_loc     0x00000000     0x1a51 build/sam_d21_xpro_winc1500/production/_ext/1062439459/drv_spi.o
 .debug_loc     0x00001a51      0x6a6 build/sam_d21_xpro_winc1500/production/_ext/1837088568/wdrv_winc_spi.o
 .debug_loc     0x000020f7       0x9e build/sam_d21_xpro_winc1500/production/_ext/418110372/nm_common.o
 .debug_loc     0x00002195      0xa70 build/sam_d21_xpro_winc1500/production/_ext/386821479/m2m_hif.o
 .debug_loc     0x00002c05     0x3599 build/sam_d21_xpro_winc1500/production/_ext/386821479/m2m_wifi.o
 .debug_loc     0x0000619e      0xc4c build/sam_d21_xpro_winc1500/production/_ext/386821479/nmasic.o
 .debug_loc     0x00006dea      0x604 build/sam_d21_xpro_winc1500/production/_ext/386821479/nmbus.o
 .debug_loc     0x000073ee      0x77e build/sam_d21_xpro_winc1500/production/_ext/386821479/nmdrv.o
 .debug_loc     0x00007b6c     0x1371 build/sam_d21_xpro_winc1500/production/_ext/386821479/nmspi.o
 .debug_loc     0x00008edd       0x4d build/sam_d21_xpro_winc1500/production/_ext/1879120711/wdrv_winc_osal.o
 .debug_loc     0x00008f2a     0x18c1 build/sam_d21_xpro_winc1500/production/_ext/2003669979/wdrv_winc.o
 .debug_loc     0x0000a7eb       0xe3 build/sam_d21_xpro_winc1500/production/_ext/1912998524/plib_clock.o
 .debug_loc     0x0000a8ce      0x101 build/sam_d21_xpro_winc1500/production/_ext/1101428939/plib_eic.o
 .debug_loc     0x0000a9cf      0x110 build/sam_d21_xpro_winc1500/production/_ext/215722156/plib_nvic.o
 .debug_loc     0x0000aadf      0x1aa build/sam_d21_xpro_winc1500/production/_ext/1311483782/plib_nvmctrl.o
 .debug_loc     0x0000ac89       0xa4 build/sam_d21_xpro_winc1500/production/_ext/215775307/plib_port.o
 .debug_loc     0x0000ad2d      0x3fe build/sam_d21_xpro_winc1500/production/_ext/1670897031/plib_sercom4_spi_master.o
 .debug_loc     0x0000b12b      0x434 build/sam_d21_xpro_winc1500/production/_ext/1242531425/plib_sercom5_usart.o
 .debug_loc     0x0000b55f       0x54 build/sam_d21_xpro_winc1500/production/_ext/1143908167/plib_tc3.o
 .debug_loc     0x0000b5b3       0xfc build/sam_d21_xpro_winc1500/production/_ext/720072173/sys_int.o
 .debug_loc     0x0000b6af     0x204e build/sam_d21_xpro_winc1500/production/_ext/1751631207/sys_time.o
 .debug_loc     0x0000d6fd       0x41 build/sam_d21_xpro_winc1500/production/_ext/281389274/initialization.o
 .debug_loc     0x0000d73e       0x20 build/sam_d21_xpro_winc1500/production/_ext/281389274/startup_xc32.o
 .debug_loc     0x0000d75e       0x20 build/sam_d21_xpro_winc1500/production/_ext/281389274/tasks.o
 .debug_loc     0x0000d77e      0x8b6 build/sam_d21_xpro_winc1500/production/_ext/1756295213/platform_sercom.o
 .debug_loc     0x0000e034      0x2b1 build/sam_d21_xpro_winc1500/production/_ext/1891040070/serial_bridge.o
 .debug_loc     0x0000e2e5       0x20 build/sam_d21_xpro_winc1500/production/_ext/1360937237/main.o
 .debug_loc     0x0000e305       0x40 build/sam_d21_xpro_winc1500/production/_ext/1360937237/app.o
 .debug_loc     0x0000e345       0x14 c:/program files/microchip/xc32/v2.41/bin/bin/../../lib/gcc/pic32c/6.2.1/../../../../pic32c/lib\libpic32c.a(data_init.o)
 .debug_loc     0x0000e359      0x164 c:/program files/microchip/xc32/v2.41/bin/bin/../../lib/gcc/pic32c/6.2.1\libgcc.a(_muldi3.o)
 .debug_loc     0x0000e4bd      0x29d c:/program files/microchip/xc32/v2.41/bin/bin/../../lib/gcc/pic32c/6.2.1\libgcc.a(_udivmoddi4.o)
 .debug_loc     0x0000e75a       0x72 c:/program files/microchip/xc32/v2.41/bin/bin/../../lib/gcc/pic32c/6.2.1/../../../../pic32c/lib\libc_nano.a(lib_a-init.o)
 .debug_loc     0x0000e7cc       0xde c:/program files/microchip/xc32/v2.41/bin/bin/../../lib/gcc/pic32c/6.2.1/../../../../pic32c/lib\libc_nano.a(lib_a-memcpy-stub.o)
 .debug_loc     0x0000e8aa       0x72 c:/program files/microchip/xc32/v2.41/bin/bin/../../lib/gcc/pic32c/6.2.1/../../../../pic32c/lib\libc_nano.a(lib_a-memset.o)

.debug_aranges  0x00000000      0xf38
 .debug_aranges
                0x00000000       0xb0 build/sam_d21_xpro_winc1500/production/_ext/1062439459/drv_spi.o
 .debug_aranges
                0x000000b0       0x38 build/sam_d21_xpro_winc1500/production/_ext/1115528141/wdrv_winc_gpio.o
 .debug_aranges
                0x000000e8       0x40 build/sam_d21_xpro_winc1500/production/_ext/1837088568/wdrv_winc_spi.o
 .debug_aranges
                0x00000128       0x28 build/sam_d21_xpro_winc1500/production/_ext/418110372/nm_common.o
 .debug_aranges
                0x00000150       0x80 build/sam_d21_xpro_winc1500/production/_ext/386821479/m2m_hif.o
 .debug_aranges
                0x000001d0      0x278 build/sam_d21_xpro_winc1500/production/_ext/386821479/m2m_wifi.o
 .debug_aranges
                0x00000448       0xc8 build/sam_d21_xpro_winc1500/production/_ext/386821479/nmasic.o
 .debug_aranges
                0x00000510       0x60 build/sam_d21_xpro_winc1500/production/_ext/386821479/nmbus.o
 .debug_aranges
                0x00000570       0x58 build/sam_d21_xpro_winc1500/production/_ext/386821479/nmdrv.o
 .debug_aranges
                0x000005c8       0x80 build/sam_d21_xpro_winc1500/production/_ext/386821479/nmspi.o
 .debug_aranges
                0x00000648       0x20 build/sam_d21_xpro_winc1500/production/_ext/1879120711/wdrv_winc_osal.o
 .debug_aranges
                0x00000668       0xf0 build/sam_d21_xpro_winc1500/production/_ext/2003669979/wdrv_winc.o
 .debug_aranges
                0x00000758       0x20 build/sam_d21_xpro_winc1500/production/_ext/1912998524/plib_clock.o
 .debug_aranges
                0x00000778       0x40 build/sam_d21_xpro_winc1500/production/_ext/1101428939/plib_eic.o
 .debug_aranges
                0x000007b8       0x20 build/sam_d21_xpro_winc1500/production/_ext/1910849038/plib_evsys.o
 .debug_aranges
                0x000007d8       0x20 build/sam_d21_xpro_winc1500/production/_ext/215722156/plib_nvic.o
 .debug_aranges
                0x000007f8       0x60 build/sam_d21_xpro_winc1500/production/_ext/1311483782/plib_nvmctrl.o
 .debug_aranges
                0x00000858       0x60 build/sam_d21_xpro_winc1500/production/_ext/215775307/plib_port.o
 .debug_aranges
                0x000008b8       0x58 build/sam_d21_xpro_winc1500/production/_ext/1670897031/plib_sercom4_spi_master.o
 .debug_aranges
                0x00000910       0xb0 build/sam_d21_xpro_winc1500/production/_ext/1242531425/plib_sercom5_usart.o
 .debug_aranges
                0x000009c0       0x78 build/sam_d21_xpro_winc1500/production/_ext/1143908167/plib_tc3.o
 .debug_aranges
                0x00000a38       0x18 build/sam_d21_xpro_winc1500/production/_ext/1923882300/platform_sercom_data.o
 .debug_aranges
                0x00000a50       0x28 build/sam_d21_xpro_winc1500/production/_ext/676678561/sys_dma.o
 .debug_aranges
                0x00000a78       0x40 build/sam_d21_xpro_winc1500/production/_ext/720072173/sys_int.o
 .debug_aranges
                0x00000ab8      0x130 build/sam_d21_xpro_winc1500/production/_ext/1751631207/sys_time.o
 .debug_aranges
                0x00000be8       0x20 build/sam_d21_xpro_winc1500/production/_ext/281389274/initialization.o
 .debug_aranges
                0x00000c08       0x20 build/sam_d21_xpro_winc1500/production/_ext/281389274/interrupts.o
 .debug_aranges
                0x00000c28       0x28 build/sam_d21_xpro_winc1500/production/_ext/281389274/exceptions.o
 .debug_aranges
                0x00000c50       0x20 build/sam_d21_xpro_winc1500/production/_ext/281389274/startup_xc32.o
 .debug_aranges
                0x00000c70       0x20 build/sam_d21_xpro_winc1500/production/_ext/281389274/tasks.o
 .debug_aranges
                0x00000c90       0x70 build/sam_d21_xpro_winc1500/production/_ext/1756295213/platform_sercom.o
 .debug_aranges
                0x00000d00       0x30 build/sam_d21_xpro_winc1500/production/_ext/1891040070/serial_bridge.o
 .debug_aranges
                0x00000d30       0x20 build/sam_d21_xpro_winc1500/production/_ext/1360937237/main.o
 .debug_aranges
                0x00000d50       0x28 build/sam_d21_xpro_winc1500/production/_ext/1360937237/app.o
 .debug_aranges
                0x00000d78       0x20 c:/program files/microchip/xc32/v2.41/bin/bin/../../lib/gcc/pic32c/6.2.1/../../../../pic32c/lib\libpic32c.a(data_init.o)
 .debug_aranges
                0x00000d98       0x20 c:/program files/microchip/xc32/v2.41/bin/bin/../../lib/gcc/pic32c/6.2.1\libgcc.a(_udivsi3.o)
 .debug_aranges
                0x00000db8       0x20 c:/program files/microchip/xc32/v2.41/bin/bin/../../lib/gcc/pic32c/6.2.1\libgcc.a(_divsi3.o)
 .debug_aranges
                0x00000dd8       0x20 c:/program files/microchip/xc32/v2.41/bin/bin/../../lib/gcc/pic32c/6.2.1\libgcc.a(_dvmd_tls.o)
 .debug_aranges
                0x00000df8       0x20 c:/program files/microchip/xc32/v2.41/bin/bin/../../lib/gcc/pic32c/6.2.1\libgcc.a(_aeabi_uldivmod.o)
 .debug_aranges
                0x00000e18       0x20 c:/program files/microchip/xc32/v2.41/bin/bin/../../lib/gcc/pic32c/6.2.1\libgcc.a(_muldi3.o)
 .debug_aranges
                0x00000e38       0x20 c:/program files/microchip/xc32/v2.41/bin/bin/../../lib/gcc/pic32c/6.2.1\libgcc.a(_udivmoddi4.o)
 .debug_aranges
                0x00000e58       0x20 c:/program files/microchip/xc32/v2.41/bin/bin/../../lib/gcc/pic32c/6.2.1\libgcc.a(_lshrdi3.o)
 .debug_aranges
                0x00000e78       0x20 c:/program files/microchip/xc32/v2.41/bin/bin/../../lib/gcc/pic32c/6.2.1\libgcc.a(_ashldi3.o)
 .debug_aranges
                0x00000e98       0x20 c:/program files/microchip/xc32/v2.41/bin/bin/../../lib/gcc/pic32c/6.2.1\libgcc.a(_clzdi2.o)
 .debug_aranges
                0x00000eb8       0x20 c:/program files/microchip/xc32/v2.41/bin/bin/../../lib/gcc/pic32c/6.2.1\libgcc.a(_clzsi2.o)
 .debug_aranges
                0x00000ed8       0x20 c:/program files/microchip/xc32/v2.41/bin/bin/../../lib/gcc/pic32c/6.2.1/../../../../pic32c/lib\libc_nano.a(lib_a-init.o)
 .debug_aranges
                0x00000ef8       0x20 c:/program files/microchip/xc32/v2.41/bin/bin/../../lib/gcc/pic32c/6.2.1/../../../../pic32c/lib\libc_nano.a(lib_a-memcpy-stub.o)
 .debug_aranges
                0x00000f18       0x20 c:/program files/microchip/xc32/v2.41/bin/bin/../../lib/gcc/pic32c/6.2.1/../../../../pic32c/lib\libc_nano.a(lib_a-memset.o)

.debug_ranges   0x00000000     0x1080
 .debug_ranges  0x00000000      0x1d0 build/sam_d21_xpro_winc1500/production/_ext/1062439459/drv_spi.o
 .debug_ranges  0x000001d0       0x28 build/sam_d21_xpro_winc1500/production/_ext/1115528141/wdrv_winc_gpio.o
 .debug_ranges  0x000001f8       0x30 build/sam_d21_xpro_winc1500/production/_ext/1837088568/wdrv_winc_spi.o
 .debug_ranges  0x00000228       0x18 build/sam_d21_xpro_winc1500/production/_ext/418110372/nm_common.o
 .debug_ranges  0x00000240       0xb0 build/sam_d21_xpro_winc1500/production/_ext/386821479/m2m_hif.o
 .debug_ranges  0x000002f0      0x350 build/sam_d21_xpro_winc1500/production/_ext/386821479/m2m_wifi.o
 .debug_ranges  0x00000640       0xd0 build/sam_d21_xpro_winc1500/production/_ext/386821479/nmasic.o
 .debug_ranges  0x00000710       0x80 build/sam_d21_xpro_winc1500/production/_ext/386821479/nmbus.o
 .debug_ranges  0x00000790       0x48 build/sam_d21_xpro_winc1500/production/_ext/386821479/nmdrv.o
 .debug_ranges  0x000007d8      0x168 build/sam_d21_xpro_winc1500/production/_ext/386821479/nmspi.o
 .debug_ranges  0x00000940       0x10 build/sam_d21_xpro_winc1500/production/_ext/1879120711/wdrv_winc_osal.o
 .debug_ranges  0x00000950      0x128 build/sam_d21_xpro_winc1500/production/_ext/2003669979/wdrv_winc.o
 .debug_ranges  0x00000a78       0x28 build/sam_d21_xpro_winc1500/production/_ext/1912998524/plib_clock.o
 .debug_ranges  0x00000aa0       0x30 build/sam_d21_xpro_winc1500/production/_ext/1101428939/plib_eic.o
 .debug_ranges  0x00000ad0       0x10 build/sam_d21_xpro_winc1500/production/_ext/1910849038/plib_evsys.o
 .debug_ranges  0x00000ae0       0x10 build/sam_d21_xpro_winc1500/production/_ext/215722156/plib_nvic.o
 .debug_ranges  0x00000af0       0x50 build/sam_d21_xpro_winc1500/production/_ext/1311483782/plib_nvmctrl.o
 .debug_ranges  0x00000b40       0x50 build/sam_d21_xpro_winc1500/production/_ext/215775307/plib_port.o
 .debug_ranges  0x00000b90       0x48 build/sam_d21_xpro_winc1500/production/_ext/1670897031/plib_sercom4_spi_master.o
 .debug_ranges  0x00000bd8       0xa0 build/sam_d21_xpro_winc1500/production/_ext/1242531425/plib_sercom5_usart.o
 .debug_ranges  0x00000c78       0x68 build/sam_d21_xpro_winc1500/production/_ext/1143908167/plib_tc3.o
 .debug_ranges  0x00000ce0       0x18 build/sam_d21_xpro_winc1500/production/_ext/676678561/sys_dma.o
 .debug_ranges  0x00000cf8       0x30 build/sam_d21_xpro_winc1500/production/_ext/720072173/sys_int.o
 .debug_ranges  0x00000d28      0x1a0 build/sam_d21_xpro_winc1500/production/_ext/1751631207/sys_time.o
 .debug_ranges  0x00000ec8       0x10 build/sam_d21_xpro_winc1500/production/_ext/281389274/initialization.o
 .debug_ranges  0x00000ed8       0x10 build/sam_d21_xpro_winc1500/production/_ext/281389274/interrupts.o
 .debug_ranges  0x00000ee8       0x18 build/sam_d21_xpro_winc1500/production/_ext/281389274/exceptions.o
 .debug_ranges  0x00000f00       0x10 build/sam_d21_xpro_winc1500/production/_ext/281389274/startup_xc32.o
 .debug_ranges  0x00000f10       0x10 build/sam_d21_xpro_winc1500/production/_ext/281389274/tasks.o
 .debug_ranges  0x00000f20       0x98 build/sam_d21_xpro_winc1500/production/_ext/1756295213/platform_sercom.o
 .debug_ranges  0x00000fb8       0x38 build/sam_d21_xpro_winc1500/production/_ext/1891040070/serial_bridge.o
 .debug_ranges  0x00000ff0       0x10 build/sam_d21_xpro_winc1500/production/_ext/1360937237/main.o
 .debug_ranges  0x00001000       0x18 build/sam_d21_xpro_winc1500/production/_ext/1360937237/app.o
 .debug_ranges  0x00001018       0x10 c:/program files/microchip/xc32/v2.41/bin/bin/../../lib/gcc/pic32c/6.2.1/../../../../pic32c/lib\libpic32c.a(data_init.o)
 .debug_ranges  0x00001028       0x28 c:/program files/microchip/xc32/v2.41/bin/bin/../../lib/gcc/pic32c/6.2.1\libgcc.a(_muldi3.o)
 .debug_ranges  0x00001050       0x10 c:/program files/microchip/xc32/v2.41/bin/bin/../../lib/gcc/pic32c/6.2.1/../../../../pic32c/lib\libc_nano.a(lib_a-init.o)
 .debug_ranges  0x00001060       0x10 c:/program files/microchip/xc32/v2.41/bin/bin/../../lib/gcc/pic32c/6.2.1/../../../../pic32c/lib\libc_nano.a(lib_a-memcpy-stub.o)
 .debug_ranges  0x00001070       0x10 c:/program files/microchip/xc32/v2.41/bin/bin/../../lib/gcc/pic32c/6.2.1/../../../../pic32c/lib\libc_nano.a(lib_a-memset.o)

.debug_line     0x00000000     0x9e9d
 .debug_line    0x00000000      0x849 build/sam_d21_xpro_winc1500/production/_ext/1062439459/drv_spi.o
 .debug_line    0x00000849      0x2e8 build/sam_d21_xpro_winc1500/production/_ext/1115528141/wdrv_winc_gpio.o
 .debug_line    0x00000b31      0x4ef build/sam_d21_xpro_winc1500/production/_ext/1837088568/wdrv_winc_spi.o
 .debug_line    0x00001020      0x354 build/sam_d21_xpro_winc1500/production/_ext/418110372/nm_common.o
 .debug_line    0x00001374      0x6a7 build/sam_d21_xpro_winc1500/production/_ext/386821479/m2m_hif.o
 .debug_line    0x00001a1b      0xbc3 build/sam_d21_xpro_winc1500/production/_ext/386821479/m2m_wifi.o
 .debug_line    0x000025de      0x62a build/sam_d21_xpro_winc1500/production/_ext/386821479/nmasic.o
 .debug_line    0x00002c08      0x46d build/sam_d21_xpro_winc1500/production/_ext/386821479/nmbus.o
 .debug_line    0x00003075      0x4a0 build/sam_d21_xpro_winc1500/production/_ext/386821479/nmdrv.o
 .debug_line    0x00003515      0x76a build/sam_d21_xpro_winc1500/production/_ext/386821479/nmspi.o
 .debug_line    0x00003c7f      0x30a build/sam_d21_xpro_winc1500/production/_ext/1879120711/wdrv_winc_osal.o
 .debug_line    0x00003f89      0xa07 build/sam_d21_xpro_winc1500/production/_ext/2003669979/wdrv_winc.o
 .debug_line    0x00004990      0x174 build/sam_d21_xpro_winc1500/production/_ext/1912998524/plib_clock.o
 .debug_line    0x00004b04      0x1bc build/sam_d21_xpro_winc1500/production/_ext/1101428939/plib_eic.o
 .debug_line    0x00004cc0       0x72 build/sam_d21_xpro_winc1500/production/_ext/1910849038/plib_evsys.o
 .debug_line    0x00004d32      0x1b7 build/sam_d21_xpro_winc1500/production/_ext/215722156/plib_nvic.o
 .debug_line    0x00004ee9      0x263 build/sam_d21_xpro_winc1500/production/_ext/1311483782/plib_nvmctrl.o
 .debug_line    0x0000514c      0x1e7 build/sam_d21_xpro_winc1500/production/_ext/215775307/plib_port.o
 .debug_line    0x00005333      0x31a build/sam_d21_xpro_winc1500/production/_ext/1670897031/plib_sercom4_spi_master.o
 .debug_line    0x0000564d      0x39b build/sam_d21_xpro_winc1500/production/_ext/1242531425/plib_sercom5_usart.o
 .debug_line    0x000059e8      0x23c build/sam_d21_xpro_winc1500/production/_ext/1143908167/plib_tc3.o
 .debug_line    0x00005c24      0x398 build/sam_d21_xpro_winc1500/production/_ext/1923882300/platform_sercom_data.o
 .debug_line    0x00005fbc       0x87 build/sam_d21_xpro_winc1500/production/_ext/676678561/sys_dma.o
 .debug_line    0x00006043      0x26e build/sam_d21_xpro_winc1500/production/_ext/720072173/sys_int.o
 .debug_line    0x000062b1      0x819 build/sam_d21_xpro_winc1500/production/_ext/1751631207/sys_time.o
 .debug_line    0x00006aca      0x78b build/sam_d21_xpro_winc1500/production/_ext/281389274/initialization.o
 .debug_line    0x00007255      0x2b1 build/sam_d21_xpro_winc1500/production/_ext/281389274/interrupts.o
 .debug_line    0x00007506      0x252 build/sam_d21_xpro_winc1500/production/_ext/281389274/exceptions.o
 .debug_line    0x00007758      0x29a build/sam_d21_xpro_winc1500/production/_ext/281389274/startup_xc32.o
 .debug_line    0x000079f2      0x29e build/sam_d21_xpro_winc1500/production/_ext/281389274/tasks.o
 .debug_line    0x00007c90      0x6d9 build/sam_d21_xpro_winc1500/production/_ext/1756295213/platform_sercom.o
 .debug_line    0x00008369      0x3e4 build/sam_d21_xpro_winc1500/production/_ext/1891040070/serial_bridge.o
 .debug_line    0x0000874d      0x245 build/sam_d21_xpro_winc1500/production/_ext/1360937237/main.o
 .debug_line    0x00008992      0x3a4 build/sam_d21_xpro_winc1500/production/_ext/1360937237/app.o
 .debug_line    0x00008d36       0xe3 c:/program files/microchip/xc32/v2.41/bin/bin/../../lib/gcc/pic32c/6.2.1/../../../../pic32c/lib\libpic32c.a(data_init.o)
 .debug_line    0x00008e19       0xb3 c:/program files/microchip/xc32/v2.41/bin/bin/../../lib/gcc/pic32c/6.2.1\libgcc.a(_udivsi3.o)
 .debug_line    0x00008ecc       0xc1 c:/program files/microchip/xc32/v2.41/bin/bin/../../lib/gcc/pic32c/6.2.1\libgcc.a(_divsi3.o)
 .debug_line    0x00008f8d       0x9c c:/program files/microchip/xc32/v2.41/bin/bin/../../lib/gcc/pic32c/6.2.1\libgcc.a(_dvmd_tls.o)
 .debug_line    0x00009029       0xa7 c:/program files/microchip/xc32/v2.41/bin/bin/../../lib/gcc/pic32c/6.2.1\libgcc.a(_aeabi_uldivmod.o)
 .debug_line    0x000090d0      0x296 c:/program files/microchip/xc32/v2.41/bin/bin/../../lib/gcc/pic32c/6.2.1\libgcc.a(_muldi3.o)
 .debug_line    0x00009366      0x2b2 c:/program files/microchip/xc32/v2.41/bin/bin/../../lib/gcc/pic32c/6.2.1\libgcc.a(_udivmoddi4.o)
 .debug_line    0x00009618       0xa7 c:/program files/microchip/xc32/v2.41/bin/bin/../../lib/gcc/pic32c/6.2.1\libgcc.a(_lshrdi3.o)
 .debug_line    0x000096bf       0xa7 c:/program files/microchip/xc32/v2.41/bin/bin/../../lib/gcc/pic32c/6.2.1\libgcc.a(_ashldi3.o)
 .debug_line    0x00009766       0xa6 c:/program files/microchip/xc32/v2.41/bin/bin/../../lib/gcc/pic32c/6.2.1\libgcc.a(_clzdi2.o)
 .debug_line    0x0000980c       0xb0 c:/program files/microchip/xc32/v2.41/bin/bin/../../lib/gcc/pic32c/6.2.1\libgcc.a(_clzsi2.o)
 .debug_line    0x000098bc      0x118 c:/program files/microchip/xc32/v2.41/bin/bin/../../lib/gcc/pic32c/6.2.1/../../../../pic32c/lib\libc_nano.a(lib_a-init.o)
 .debug_line    0x000099d4      0x21c c:/program files/microchip/xc32/v2.41/bin/bin/../../lib/gcc/pic32c/6.2.1/../../../../pic32c/lib\libc_nano.a(lib_a-memcpy-stub.o)
 .debug_line    0x00009bf0      0x2ad c:/program files/microchip/xc32/v2.41/bin/bin/../../lib/gcc/pic32c/6.2.1/../../../../pic32c/lib\libc_nano.a(lib_a-memset.o)

.debug_str      0x00000000     0x1a18
 .debug_str     0x00000000      0x1ff build/sam_d21_xpro_winc1500/production/_ext/1062439459/drv_spi.o
 .debug_str     0x000001ff        0xe build/sam_d21_xpro_winc1500/production/_ext/1115528141/wdrv_winc_gpio.o
 .debug_str     0x0000020d       0xe0 build/sam_d21_xpro_winc1500/production/_ext/1837088568/wdrv_winc_spi.o
 .debug_str     0x000002ed       0x91 build/sam_d21_xpro_winc1500/production/_ext/418110372/nm_common.o
 .debug_str     0x0000037e       0xe0 build/sam_d21_xpro_winc1500/production/_ext/386821479/m2m_hif.o
 .debug_str     0x0000045e      0x3f0 build/sam_d21_xpro_winc1500/production/_ext/386821479/m2m_wifi.o
 .debug_str     0x0000084e       0x8d build/sam_d21_xpro_winc1500/production/_ext/386821479/nmasic.o
 .debug_str     0x000008db       0xa6 build/sam_d21_xpro_winc1500/production/_ext/386821479/nmbus.o
 .debug_str     0x00000981      0x137 build/sam_d21_xpro_winc1500/production/_ext/386821479/nmdrv.o
 .debug_str     0x00000ab8       0x88 build/sam_d21_xpro_winc1500/production/_ext/386821479/nmspi.o
 .debug_str     0x00000b40       0x38 build/sam_d21_xpro_winc1500/production/_ext/1879120711/wdrv_winc_osal.o
 .debug_str     0x00000b78      0x3ee build/sam_d21_xpro_winc1500/production/_ext/2003669979/wdrv_winc.o
 .debug_str     0x00000f66       0x28 build/sam_d21_xpro_winc1500/production/_ext/1912998524/plib_clock.o
 .debug_str     0x00000f8e        0x9 build/sam_d21_xpro_winc1500/production/_ext/1101428939/plib_eic.o
 .debug_str     0x00000f97        0x0 build/sam_d21_xpro_winc1500/production/_ext/1910849038/plib_evsys.o
 .debug_str     0x00000f97        0xa build/sam_d21_xpro_winc1500/production/_ext/215722156/plib_nvic.o
 .debug_str     0x00000fa1       0x16 build/sam_d21_xpro_winc1500/production/_ext/1311483782/plib_nvmctrl.o
 .debug_str     0x00000fb7        0xb build/sam_d21_xpro_winc1500/production/_ext/215775307/plib_port.o
 .debug_str     0x00000fc2      0x11e build/sam_d21_xpro_winc1500/production/_ext/1670897031/plib_sercom4_spi_master.o
 .debug_str     0x000010e0      0x101 build/sam_d21_xpro_winc1500/production/_ext/1242531425/plib_sercom5_usart.o
 .debug_str     0x000011e1       0xa7 build/sam_d21_xpro_winc1500/production/_ext/1143908167/plib_tc3.o
 .debug_str     0x00001288        0xe build/sam_d21_xpro_winc1500/production/_ext/1923882300/platform_sercom_data.o
 .debug_str     0x00001296        0x0 build/sam_d21_xpro_winc1500/production/_ext/676678561/sys_dma.o
 .debug_str     0x00001296       0x10 build/sam_d21_xpro_winc1500/production/_ext/720072173/sys_int.o
 .debug_str     0x000012a6      0x14e build/sam_d21_xpro_winc1500/production/_ext/1751631207/sys_time.o
 .debug_str     0x000013f4      0x10e build/sam_d21_xpro_winc1500/production/_ext/281389274/initialization.o
 .debug_str     0x00001502        0xe build/sam_d21_xpro_winc1500/production/_ext/281389274/interrupts.o
 .debug_str     0x00001510        0xe build/sam_d21_xpro_winc1500/production/_ext/281389274/exceptions.o
 .debug_str     0x0000151e       0x79 build/sam_d21_xpro_winc1500/production/_ext/281389274/startup_xc32.o
 .debug_str     0x00001597       0x28 build/sam_d21_xpro_winc1500/production/_ext/281389274/tasks.o
 .debug_str     0x000015bf      0x1a7 build/sam_d21_xpro_winc1500/production/_ext/1756295213/platform_sercom.o
 .debug_str     0x00001766      0x10e build/sam_d21_xpro_winc1500/production/_ext/1891040070/serial_bridge.o
 .debug_str     0x00001874       0x27 build/sam_d21_xpro_winc1500/production/_ext/1360937237/main.o
 .debug_str     0x0000189b       0x60 build/sam_d21_xpro_winc1500/production/_ext/1360937237/app.o
 .debug_str     0x000018fb        0x0 c:/program files/microchip/xc32/v2.41/bin/bin/../../lib/gcc/pic32c/6.2.1/../../../../pic32c/lib\libpic32c.a(data_init.o)
 .debug_str     0x000018fb        0x0 c:/program files/microchip/xc32/v2.41/bin/bin/../../lib/gcc/pic32c/6.2.1\libgcc.a(_muldi3.o)
 .debug_str     0x000018fb        0x0 c:/program files/microchip/xc32/v2.41/bin/bin/../../lib/gcc/pic32c/6.2.1\libgcc.a(_udivmoddi4.o)
 .debug_str     0x000018fb        0x0 c:/program files/microchip/xc32/v2.41/bin/bin/../../lib/gcc/pic32c/6.2.1/../../../../pic32c/lib\libc_nano.a(lib_a-init.o)
 .debug_str     0x000018fb        0x9 c:/program files/microchip/xc32/v2.41/bin/bin/../../lib/gcc/pic32c/6.2.1/../../../../pic32c/lib\libc_nano.a(lib_a-memcpy-stub.o)
 .debug_str     0x00001904      0x114 c:/program files/microchip/xc32/v2.41/bin/bin/../../lib/gcc/pic32c/6.2.1/../../../../pic32c/lib\libc_nano.a(lib_a-memset.o)

.debug_frame    0x00000000     0x2254
 .debug_frame   0x00000000      0x224 build/sam_d21_xpro_winc1500/production/_ext/1062439459/drv_spi.o
 .debug_frame   0x00000224       0x50 build/sam_d21_xpro_winc1500/production/_ext/1115528141/wdrv_winc_gpio.o
 .debug_frame   0x00000274       0x88 build/sam_d21_xpro_winc1500/production/_ext/1837088568/wdrv_winc_spi.o
 .debug_frame   0x000002fc       0x40 build/sam_d21_xpro_winc1500/production/_ext/418110372/nm_common.o
 .debug_frame   0x0000033c      0x138 build/sam_d21_xpro_winc1500/production/_ext/386821479/m2m_hif.o
 .debug_frame   0x00000474      0x7b0 build/sam_d21_xpro_winc1500/production/_ext/386821479/m2m_wifi.o
 .debug_frame   0x00000c24      0x270 build/sam_d21_xpro_winc1500/production/_ext/386821479/nmasic.o
 .debug_frame   0x00000e94       0xf8 build/sam_d21_xpro_winc1500/production/_ext/386821479/nmbus.o
 .debug_frame   0x00000f8c       0xec build/sam_d21_xpro_winc1500/production/_ext/386821479/nmdrv.o
 .debug_frame   0x00001078      0x194 build/sam_d21_xpro_winc1500/production/_ext/386821479/nmspi.o
 .debug_frame   0x0000120c       0x28 build/sam_d21_xpro_winc1500/production/_ext/1879120711/wdrv_winc_osal.o
 .debug_frame   0x00001234      0x280 build/sam_d21_xpro_winc1500/production/_ext/2003669979/wdrv_winc.o
 .debug_frame   0x000014b4       0x20 build/sam_d21_xpro_winc1500/production/_ext/1912998524/plib_clock.o
 .debug_frame   0x000014d4       0x88 build/sam_d21_xpro_winc1500/production/_ext/1101428939/plib_eic.o
 .debug_frame   0x0000155c       0x20 build/sam_d21_xpro_winc1500/production/_ext/1910849038/plib_evsys.o
 .debug_frame   0x0000157c       0x28 build/sam_d21_xpro_winc1500/production/_ext/215722156/plib_nvic.o
 .debug_frame   0x000015a4       0xb0 build/sam_d21_xpro_winc1500/production/_ext/1311483782/plib_nvmctrl.o
 .debug_frame   0x00001654       0xa8 build/sam_d21_xpro_winc1500/production/_ext/215775307/plib_port.o
 .debug_frame   0x000016fc       0xc0 build/sam_d21_xpro_winc1500/production/_ext/1670897031/plib_sercom4_spi_master.o
 .debug_frame   0x000017bc      0x16c build/sam_d21_xpro_winc1500/production/_ext/1242531425/plib_sercom5_usart.o
 .debug_frame   0x00001928       0xd8 build/sam_d21_xpro_winc1500/production/_ext/1143908167/plib_tc3.o
 .debug_frame   0x00001a00       0x30 build/sam_d21_xpro_winc1500/production/_ext/676678561/sys_dma.o
 .debug_frame   0x00001a30       0x6c build/sam_d21_xpro_winc1500/production/_ext/720072173/sys_int.o
 .debug_frame   0x00001a9c      0x398 build/sam_d21_xpro_winc1500/production/_ext/1751631207/sys_time.o
 .debug_frame   0x00001e34       0x28 build/sam_d21_xpro_winc1500/production/_ext/281389274/initialization.o
 .debug_frame   0x00001e5c       0x20 build/sam_d21_xpro_winc1500/production/_ext/281389274/interrupts.o
 .debug_frame   0x00001e7c       0x30 build/sam_d21_xpro_winc1500/production/_ext/281389274/exceptions.o
 .debug_frame   0x00001eac       0x28 build/sam_d21_xpro_winc1500/production/_ext/281389274/startup_xc32.o
 .debug_frame   0x00001ed4       0x28 build/sam_d21_xpro_winc1500/production/_ext/281389274/tasks.o
 .debug_frame   0x00001efc      0x144 build/sam_d21_xpro_winc1500/production/_ext/1756295213/platform_sercom.o
 .debug_frame   0x00002040       0x68 build/sam_d21_xpro_winc1500/production/_ext/1891040070/serial_bridge.o
 .debug_frame   0x000020a8       0x28 build/sam_d21_xpro_winc1500/production/_ext/1360937237/main.o
 .debug_frame   0x000020d0       0x40 build/sam_d21_xpro_winc1500/production/_ext/1360937237/app.o
 .debug_frame   0x00002110       0x2c c:/program files/microchip/xc32/v2.41/bin/bin/../../lib/gcc/pic32c/6.2.1/../../../../pic32c/lib\libpic32c.a(data_init.o)
 .debug_frame   0x0000213c       0x20 c:/program files/microchip/xc32/v2.41/bin/bin/../../lib/gcc/pic32c/6.2.1\libgcc.a(_udivsi3.o)
 .debug_frame   0x0000215c       0x20 c:/program files/microchip/xc32/v2.41/bin/bin/../../lib/gcc/pic32c/6.2.1\libgcc.a(_divsi3.o)
 .debug_frame   0x0000217c       0x34 c:/program files/microchip/xc32/v2.41/bin/bin/../../lib/gcc/pic32c/6.2.1\libgcc.a(_muldi3.o)
 .debug_frame   0x000021b0       0x30 c:/program files/microchip/xc32/v2.41/bin/bin/../../lib/gcc/pic32c/6.2.1\libgcc.a(_udivmoddi4.o)
 .debug_frame   0x000021e0       0x2c c:/program files/microchip/xc32/v2.41/bin/bin/../../lib/gcc/pic32c/6.2.1/../../../../pic32c/lib\libc_nano.a(lib_a-init.o)
 .debug_frame   0x0000220c       0x28 c:/program files/microchip/xc32/v2.41/bin/bin/../../lib/gcc/pic32c/6.2.1/../../../../pic32c/lib\libc_nano.a(lib_a-memcpy-stub.o)
 .debug_frame   0x00002234       0x20 c:/program files/microchip/xc32/v2.41/bin/bin/../../lib/gcc/pic32c/6.2.1/../../../../pic32c/lib\libc_nano.a(lib_a-memset.o)

.stack          0x200038c8      0x100
 .stack         0x200038c8      0x100 stack

.bss.serialBridgeDecoderState%1
                0x20000160      0x81c
 .bss.serialBridgeDecoderState
                0x20000160      0x81c build/sam_d21_xpro_winc1500/production/_ext/1360937237/app.o

.bss.usartReceiveBuffer%2
                0x2000097c      0x200
 .bss.usartReceiveBuffer
                0x2000097c      0x200 build/sam_d21_xpro_winc1500/production/_ext/1756295213/platform_sercom.o

.bss.usartTransmitBuffer%3
                0x20000b7c      0x200
 .bss.usartTransmitBuffer
                0x20000b7c      0x200 build/sam_d21_xpro_winc1500/production/_ext/1756295213/platform_sercom.o

.bss.drvSPI0TransferObjPool%4
                0x20000d7c      0x168
 .bss.drvSPI0TransferObjPool
                0x20000d7c      0x168 build/sam_d21_xpro_winc1500/production/_ext/281389274/initialization.o

.bss.wincDescriptor%5
                0x20000ee4       0xf4
 .bss.wincDescriptor
                0x20000ee4       0xf4 build/sam_d21_xpro_winc1500/production/_ext/2003669979/wdrv_winc.o

.bss.timers%6   0x20000fd8       0xa0
 .bss.timers    0x20000fd8       0xa0 build/sam_d21_xpro_winc1500/production/_ext/1751631207/sys_time.o

.bss.gDrvSPIObj%7
                0x20001078       0x60
 .bss.gDrvSPIObj
                0x20001078       0x60 build/sam_d21_xpro_winc1500/production/_ext/1062439459/drv_spi.o

.bss.gSystemCounterObj%8
                0x200010d8       0x38
 .bss.gSystemCounterObj
                0x200010d8       0x38 build/sam_d21_xpro_winc1500/production/_ext/1751631207/sys_time.o

.bss.drvSPI0ClientObjPool%9
                0x20001110       0x28
 .bss.drvSPI0ClientObjPool
                0x20001110       0x28 build/sam_d21_xpro_winc1500/production/_ext/281389274/initialization.o

.bss%10         0x20001138       0x1c
 .bss           0x20001138       0x1c c:/program files/microchip/xc32/v2.41/bin/bin/../../lib/gcc/pic32c/6.2.1/crtbegin.o

.bss.sercomSetup%11
                0x20001154       0x10
 .bss.sercomSetup
                0x20001154       0x10 build/sam_d21_xpro_winc1500/production/_ext/1756295213/platform_sercom.o

.bss.transferRxHandle%12
                0x20001164        0x4
 .bss.transferRxHandle
                0x20001164        0x4 build/sam_d21_xpro_winc1500/production/_ext/1837088568/wdrv_winc_spi.o

.bss.transferTxHandle%13
                0x20001168        0x4
 .bss.transferTxHandle
                0x20001168        0x4 build/sam_d21_xpro_winc1500/production/_ext/1837088568/wdrv_winc_spi.o

.data.spiHandle%14
                0x2000116c        0x4
 .data.spiHandle
                0x2000116c        0x4 build/sam_d21_xpro_winc1500/production/_ext/1837088568/wdrv_winc_spi.o

.bss.chipid.8937%15
                0x20001170        0x4
 .bss.chipid.8937
                0x20001170        0x4 build/sam_d21_xpro_winc1500/production/_ext/386821479/nmasic.o

.bss.usartReceiveInOffset%16
                0x20001174        0x4
 .bss.usartReceiveInOffset
                0x20001174        0x4 build/sam_d21_xpro_winc1500/production/_ext/1756295213/platform_sercom.o

.bss.usartReceiveLength%17
                0x20001178        0x4
 .bss.usartReceiveLength
                0x20001178        0x4 build/sam_d21_xpro_winc1500/production/_ext/1756295213/platform_sercom.o

.bss.usartReceiveOutOffset%18
                0x2000117c        0x4
 .bss.usartReceiveOutOffset
                0x2000117c        0x4 build/sam_d21_xpro_winc1500/production/_ext/1756295213/platform_sercom.o

.bss.usartTransmitInOffset%19
                0x20001180        0x4
 .bss.usartTransmitInOffset
                0x20001180        0x4 build/sam_d21_xpro_winc1500/production/_ext/1756295213/platform_sercom.o

.bss.usartTransmitLength%20
                0x20001184        0x4
 .bss.usartTransmitLength
                0x20001184        0x4 build/sam_d21_xpro_winc1500/production/_ext/1756295213/platform_sercom.o

.bss.usartTransmitOutOffset%21
                0x20001188        0x4
 .bss.usartTransmitOutOffset
                0x20001188        0x4 build/sam_d21_xpro_winc1500/production/_ext/1756295213/platform_sercom.o

.data.egstrNmBusCapabilities%22
                0x2000118c        0x2
 .data.egstrNmBusCapabilities
                0x2000118c        0x2 build/sam_d21_xpro_winc1500/production/_ext/386821479/nmbus.o
                0x2000118c                egstrNmBusCapabilities

.data.gSysTimeTokenCount%23
                0x2000118e        0x2
 .data.gSysTimeTokenCount
                0x2000118e        0x2 build/sam_d21_xpro_winc1500/production/_ext/1751631207/sys_time.o

.bss.dummy.9209%24
                0x20001190        0x1
 .bss.dummy.9209
                0x20001190        0x1 build/sam_d21_xpro_winc1500/production/_ext/1837088568/wdrv_winc_spi.o

.bss.rxSyncSem%25
                0x20001191        0x1
 .bss.rxSyncSem
                0x20001191        0x1 build/sam_d21_xpro_winc1500/production/_ext/1837088568/wdrv_winc_spi.o

.bss.txSyncSem%26
                0x20001192        0x1
 .bss.txSyncSem
                0x20001192        0x1 build/sam_d21_xpro_winc1500/production/_ext/1837088568/wdrv_winc_spi.o

.bss.hifSemaphore%27
                0x20001193        0x1
 .bss.hifSemaphore
                0x20001193        0x1 build/sam_d21_xpro_winc1500/production/_ext/386821479/m2m_hif.o

.bss.gu8WifiState%28
                0x20001194        0x1
 .bss.gu8WifiState
                0x20001194        0x1 build/sam_d21_xpro_winc1500/production/_ext/386821479/m2m_wifi.o

.bss.gu8Crc_off%29
                0x20001195        0x1
 .bss.gu8Crc_off
                0x20001195        0x1 build/sam_d21_xpro_winc1500/production/_ext/386821479/nmspi.o

.bss.s_spiLock%30
                0x20001196        0x1
 .bss.s_spiLock
                0x20001196        0x1 build/sam_d21_xpro_winc1500/production/_ext/386821479/nmspi.o

.bss.isLastByteTransferInProgress.5548%31
                0x20001197        0x1
 .bss.isLastByteTransferInProgress.5548
                0x20001197        0x1 build/sam_d21_xpro_winc1500/production/_ext/1670897031/plib_sercom4_spi_master.o

.bss.usartWriteMutex%32
                0x20001198        0x1
 .bss.usartWriteMutex
                0x20001198        0x1 build/sam_d21_xpro_winc1500/production/_ext/1756295213/platform_sercom.o

.eh_frame%z1    0x00000000        0x0
 .eh_frame      0x00000000        0x0 c:/program files/microchip/xc32/v2.41/bin/bin/../../lib/gcc/pic32c/6.2.1/crtbegin.o

.dinit%33       0x000000d8      0x200
 .dinit         0x000000d8      0x200 data_init

.text.DRV_SPI_WriteReadTransferAdd%34
                0x000002d8      0x1d8
 .text.DRV_SPI_WriteReadTransferAdd
                0x000002d8      0x1d8 build/sam_d21_xpro_winc1500/production/_ext/1062439459/drv_spi.o
                0x000002d8                DRV_SPI_WriteReadTransferAdd

.text.hif_handle_isr%35
                0x000004b0      0x1c8
 .text.hif_handle_isr
                0x000004b0      0x1c8 build/sam_d21_xpro_winc1500/production/_ext/386821479/m2m_hif.o
                0x000004b0                hif_handle_isr

.text.SERCOM4_SPI_InterruptHandler%36
                0x00000678      0x16c
 .text.SERCOM4_SPI_InterruptHandler
                0x00000678      0x16c build/sam_d21_xpro_winc1500/production/_ext/1670897031/plib_sercom4_spi_master.o
                0x00000678                SERCOM4_SPI_InterruptHandler

.text.SerialBridge_Process%37
                0x000007e4      0x16c
 .text.SerialBridge_Process
                0x000007e4      0x16c build/sam_d21_xpro_winc1500/production/_ext/1891040070/serial_bridge.o
                0x000007e4                SerialBridge_Process

.text.nm_spi_write_block%38
                0x00000950      0x160
 .text.nm_spi_write_block
                0x00000950      0x160 build/sam_d21_xpro_winc1500/production/_ext/386821479/nmspi.o
                0x00000950                nm_spi_write_block

.text.SerialBridge_PlatformUARTWritePutBuffer%39
                0x00000ab0      0x15c
 .text.SerialBridge_PlatformUARTWritePutBuffer
                0x00000ab0      0x15c build/sam_d21_xpro_winc1500/production/_ext/1756295213/platform_sercom.o
                0x00000ab0                SerialBridge_PlatformUARTWritePutBuffer

.text.SERCOM4_SPI_WriteRead%40
                0x00000c0c      0x140
 .text.SERCOM4_SPI_WriteRead
                0x00000c0c      0x140 build/sam_d21_xpro_winc1500/production/_ext/1670897031/plib_sercom4_spi_master.o
                0x00000c0c                SERCOM4_SPI_WriteRead

.text._DRV_SPI_StartDMATransfer%41
                0x00000d4c      0x138
 .text._DRV_SPI_StartDMATransfer
                0x00000d4c      0x138 build/sam_d21_xpro_winc1500/production/_ext/1062439459/drv_spi.o

.text.SERCOM5_USART_SerialSetup%42
                0x00000e84      0x134
 .text.SERCOM5_USART_SerialSetup
                0x00000e84      0x134 build/sam_d21_xpro_winc1500/production/_ext/1242531425/plib_sercom5_usart.o
                0x00000e84                SERCOM5_USART_SerialSetup

.text.spi_cmd%43
                0x00000fb8      0x118
 .text.spi_cmd  0x00000fb8      0x118 build/sam_d21_xpro_winc1500/production/_ext/386821479/nmspi.o

.text.DRV_SPI_Open%44
                0x000010d0      0x108
 .text.DRV_SPI_Open
                0x000010d0      0x108 build/sam_d21_xpro_winc1500/production/_ext/1062439459/drv_spi.o
                0x000010d0                DRV_SPI_Open

.rodata.crc7_syndrome_table%45
                0x000011d8      0x100
 .rodata.crc7_syndrome_table
                0x000011d8      0x100 build/sam_d21_xpro_winc1500/production/_ext/386821479/nmspi.o

.text._ProcessCommand%46
                0x000012d8      0x100
 .text._ProcessCommand
                0x000012d8      0x100 build/sam_d21_xpro_winc1500/production/_ext/1891040070/serial_bridge.o

.text.SERCOM5_USART_InterruptHandler%47
                0x000013d8       0xe4
 .text.SERCOM5_USART_InterruptHandler
                0x000013d8       0xe4 build/sam_d21_xpro_winc1500/production/_ext/1242531425/plib_sercom5_usart.o
                0x000013d8                SERCOM5_USART_InterruptHandler

.text%48        0x000014bc       0xe2
 .text          0x000014bc       0xe2 c:/program files/microchip/xc32/v2.41/bin/bin/../../lib/gcc/pic32c/6.2.1\libgcc.a(_udivmoddi4.o)
                0x000014bc                __udivmoddi4

.text.spi_data_read%49
                0x000015a0       0xe0
 .text.spi_data_read
                0x000015a0       0xe0 build/sam_d21_xpro_winc1500/production/_ext/386821479/nmspi.o

.text.SYS_TIME_AddToList%50
                0x00001680       0xe0
 .text.SYS_TIME_AddToList
                0x00001680       0xe0 build/sam_d21_xpro_winc1500/production/_ext/1751631207/sys_time.o

.text.SYS_TIME_PLIBCallback%51
                0x00001760       0xe0
 .text.SYS_TIME_PLIBCallback
                0x00001760       0xe0 build/sam_d21_xpro_winc1500/production/_ext/1751631207/sys_time.o

.text.SerialBridge_PlatformUARTReadGetBuffer%52
                0x00001840       0xdc
 .text.SerialBridge_PlatformUARTReadGetBuffer
                0x00001840       0xdc build/sam_d21_xpro_winc1500/production/_ext/1756295213/platform_sercom.o
                0x00001840                SerialBridge_PlatformUARTReadGetBuffer

.text.CLOCK_Initialize%53
                0x0000191c       0xc8
 .text.CLOCK_Initialize
                0x0000191c       0xc8 build/sam_d21_xpro_winc1500/production/_ext/1912998524/plib_clock.o
                0x0000191c                CLOCK_Initialize

.text._DRV_SPI_ResourceLock%54
                0x000019e4       0xc4
 .text._DRV_SPI_ResourceLock
                0x000019e4       0xc4 build/sam_d21_xpro_winc1500/production/_ext/1062439459/drv_spi.o

.text._DRV_SPI_PlibCallbackHandler%55
                0x00001aa8       0xc4
 .text._DRV_SPI_PlibCallbackHandler
                0x00001aa8       0xc4 build/sam_d21_xpro_winc1500/production/_ext/1062439459/drv_spi.o

.text.nmi_get_chipid%56
                0x00001b6c       0xc4
 .text.nmi_get_chipid
                0x00001b6c       0xc4 build/sam_d21_xpro_winc1500/production/_ext/386821479/nmasic.o
                0x00001b6c                nmi_get_chipid

.text.SYS_TIME_TimerObjectCreate%57
                0x00001c30       0xc0
 .text.SYS_TIME_TimerObjectCreate
                0x00001c30       0xc0 build/sam_d21_xpro_winc1500/production/_ext/1751631207/sys_time.o

.text._DRV_SPI_ResourceUnlock%58
                0x00001cf0       0xb2
 .text._DRV_SPI_ResourceUnlock
                0x00001cf0       0xb2 build/sam_d21_xpro_winc1500/production/_ext/1062439459/drv_spi.o

.text.nm_spi_read_reg_with_ret%59
                0x00001da4       0xac
 .text.nm_spi_read_reg_with_ret
                0x00001da4       0xac build/sam_d21_xpro_winc1500/production/_ext/386821479/nmspi.o
                0x00001da4                nm_spi_read_reg_with_ret

.text.SYS_TIME_Initialize%60
                0x00001e50       0xac
 .text.SYS_TIME_Initialize
                0x00001e50       0xac build/sam_d21_xpro_winc1500/production/_ext/1751631207/sys_time.o
                0x00001e50                SYS_TIME_Initialize

.text%61        0x00001efc       0xa8
 .text          0x00001efc       0xa8 c:/program files/microchip/xc32/v2.41/bin/bin/../../lib/gcc/pic32c/6.2.1\libgcc.a(_divsi3.o)
                0x00001efc                __divsi3
                0x00001efc                __aeabi_idiv
                0x00001f90                __aeabi_idivmod

.text.DRV_SPI_Initialize%62
                0x00001fa4       0xa4
 .text.DRV_SPI_Initialize
                0x00001fa4       0xa4 build/sam_d21_xpro_winc1500/production/_ext/1062439459/drv_spi.o
                0x00001fa4                DRV_SPI_Initialize

.text.SYS_TIME_HwTimerCompareUpdate%63
                0x00002048       0xa4
 .text.SYS_TIME_HwTimerCompareUpdate
                0x00002048       0xa4 build/sam_d21_xpro_winc1500/production/_ext/1751631207/sys_time.o

.text._DRV_SPI_UpdateTransferSetupAndAssertCS%64
                0x000020ec       0xa0
 .text._DRV_SPI_UpdateTransferSetupAndAssertCS
                0x000020ec       0xa0 build/sam_d21_xpro_winc1500/production/_ext/1062439459/drv_spi.o

.text.SerialBridge_PlatformUARTWriteGetCount%65
                0x0000218c       0xa0
 .text.SerialBridge_PlatformUARTWriteGetCount
                0x0000218c       0xa0 build/sam_d21_xpro_winc1500/production/_ext/1756295213/platform_sercom.o
                0x0000218c                SerialBridge_PlatformUARTWriteGetCount

.text.nm_spi_write_reg%66
                0x0000222c       0x9c
 .text.nm_spi_write_reg
                0x0000222c       0x9c build/sam_d21_xpro_winc1500/production/_ext/386821479/nmspi.o
                0x0000222c                nm_spi_write_reg

.text.nm_spi_read_block%67
                0x000022c8       0x98
 .text.nm_spi_read_block
                0x000022c8       0x98 build/sam_d21_xpro_winc1500/production/_ext/386821479/nmspi.o
                0x000022c8                nm_spi_read_block

.text.spi_cmd_rsp%68
                0x00002360       0x96
 .text.spi_cmd_rsp
                0x00002360       0x96 build/sam_d21_xpro_winc1500/production/_ext/386821479/nmspi.o

.text.nm_spi_init%69
                0x000023f8       0x94
 .text.nm_spi_init
                0x000023f8       0x94 build/sam_d21_xpro_winc1500/production/_ext/386821479/nmspi.o
                0x000023f8                nm_spi_init

.text.WDRV_WINC_Tasks%70
                0x0000248c       0x90
 .text.WDRV_WINC_Tasks
                0x0000248c       0x90 build/sam_d21_xpro_winc1500/production/_ext/2003669979/wdrv_winc.o
                0x0000248c                WDRV_WINC_Tasks

.text.__pic32c_data_initialization%71
                0x0000251c       0x90
 .text.__pic32c_data_initialization
                0x0000251c       0x90 c:/program files/microchip/xc32/v2.41/bin/bin/../../lib/gcc/pic32c/6.2.1/../../../../pic32c/lib\libpic32c.a(data_init.o)
                0x0000251c                __pic32c_data_initialization

.text%72        0x000025ac       0x8c
 .text          0x000025ac       0x8c c:/program files/microchip/xc32/v2.41/bin/bin/../../lib/gcc/pic32c/6.2.1\libgcc.a(_udivsi3.o)
                0x000025ac                __aeabi_uidiv
                0x000025ac                __udivsi3
                0x00002624                __aeabi_uidivmod

.text.SERCOM4_SPI_TransferSetup%73
                0x00002638       0x88
 .text.SERCOM4_SPI_TransferSetup
                0x00002638       0x88 build/sam_d21_xpro_winc1500/production/_ext/1670897031/plib_sercom4_spi_master.o
                0x00002638                SERCOM4_SPI_TransferSetup

.text.EIC_Initialize%74
                0x000026c0       0x84
 .text.EIC_Initialize
                0x000026c0       0x84 build/sam_d21_xpro_winc1500/production/_ext/1101428939/plib_eic.o
                0x000026c0                EIC_Initialize

.text.chip_wake%75
                0x00002744       0x7e
 .text.chip_wake
                0x00002744       0x7e build/sam_d21_xpro_winc1500/production/_ext/386821479/nmasic.o
                0x00002744                chip_wake

.text.SerialBridge_PlatformUARTSetBaudRate%76
                0x000027c4       0x7c
 .text.SerialBridge_PlatformUARTSetBaudRate
                0x000027c4       0x7c build/sam_d21_xpro_winc1500/production/_ext/1756295213/platform_sercom.o
                0x000027c4                SerialBridge_PlatformUARTSetBaudRate

.text._USARTInit%77
                0x00002840       0x78
 .text._USARTInit
                0x00002840       0x78 build/sam_d21_xpro_winc1500/production/_ext/1756295213/platform_sercom.o

.text.cpu_halt%78
                0x000028b8       0x6c
 .text.cpu_halt
                0x000028b8       0x6c build/sam_d21_xpro_winc1500/production/_ext/386821479/nmasic.o
                0x000028b8                cpu_halt

.text.SerialBridge_PlatformUARTReadGetCount%79
                0x00002924       0x6c
 .text.SerialBridge_PlatformUARTReadGetCount
                0x00002924       0x6c build/sam_d21_xpro_winc1500/production/_ext/1756295213/platform_sercom.o
                0x00002924                SerialBridge_PlatformUARTReadGetCount

.text.NVIC_Initialize%80
                0x00002990       0x68
 .text.NVIC_Initialize
                0x00002990       0x68 build/sam_d21_xpro_winc1500/production/_ext/215722156/plib_nvic.o
                0x00002990                NVIC_Initialize

.text.SYS_Initialize%81
                0x000029f8       0x64
 .text.SYS_Initialize
                0x000029f8       0x64 build/sam_d21_xpro_winc1500/production/_ext/281389274/initialization.o
                0x000029f8                SYS_Initialize

.text.nm_read_block%82
                0x00002a5c       0x60
 .text.nm_read_block
                0x00002a5c       0x60 build/sam_d21_xpro_winc1500/production/_ext/386821479/nmbus.o
                0x00002a5c                nm_read_block

.text.nm_write_block%83
                0x00002abc       0x60
 .text.nm_write_block
                0x00002abc       0x60 build/sam_d21_xpro_winc1500/production/_ext/386821479/nmbus.o
                0x00002abc                nm_write_block

.text.SYS_TIME_TimerStart%84
                0x00002b1c       0x60
 .text.SYS_TIME_TimerStart
                0x00002b1c       0x60 build/sam_d21_xpro_winc1500/production/_ext/1751631207/sys_time.o
                0x00002b1c                SYS_TIME_TimerStart

.text.chip_sleep%85
                0x00002b7c       0x5e
 .text.chip_sleep
                0x00002b7c       0x5e build/sam_d21_xpro_winc1500/production/_ext/386821479/nmasic.o
                0x00002b7c                chip_sleep

.text.WDRV_WINC_SPIReceive%86
                0x00002bdc       0x5c
 .text.WDRV_WINC_SPIReceive
                0x00002bdc       0x5c build/sam_d21_xpro_winc1500/production/_ext/1837088568/wdrv_winc_spi.o
                0x00002bdc                WDRV_WINC_SPIReceive

.text.SYS_TIME_RemoveFromList%87
                0x00002c38       0x58
 .text.SYS_TIME_RemoveFromList
                0x00002c38       0x58 build/sam_d21_xpro_winc1500/production/_ext/1751631207/sys_time.o

.text.Reset_Handler%88
                0x00002c90       0x58
 .text.Reset_Handler
                0x00002c90       0x58 build/sam_d21_xpro_winc1500/production/_ext/281389274/startup_xc32.o
                0x00002c90                Reset_Handler

.text.WDRV_WINC_SPISend%89
                0x00002ce8       0x54
 .text.WDRV_WINC_SPISend
                0x00002ce8       0x54 build/sam_d21_xpro_winc1500/production/_ext/1837088568/wdrv_winc_spi.o
                0x00002ce8                WDRV_WINC_SPISend

.text.enable_interrupts%90
                0x00002d3c       0x54
 .text.enable_interrupts
                0x00002d3c       0x54 build/sam_d21_xpro_winc1500/production/_ext/386821479/nmasic.o
                0x00002d3c                enable_interrupts

.text.SERCOM5_USART_Initialize%91
                0x00002d90       0x54
 .text.SERCOM5_USART_Initialize
                0x00002d90       0x54 build/sam_d21_xpro_winc1500/production/_ext/1242531425/plib_sercom5_usart.o
                0x00002d90                SERCOM5_USART_Initialize

.text.SYS_TIME_DelayMS%92
                0x00002de4       0x54
 .text.SYS_TIME_DelayMS
                0x00002de4       0x54 build/sam_d21_xpro_winc1500/production/_ext/1751631207/sys_time.o
                0x00002de4                SYS_TIME_DelayMS

.text.WDRV_WINC_SPIInitialize%93
                0x00002e38       0x50
 .text.WDRV_WINC_SPIInitialize
                0x00002e38       0x50 build/sam_d21_xpro_winc1500/production/_ext/1837088568/wdrv_winc_spi.o
                0x00002e38                WDRV_WINC_SPIInitialize

.text.PORT_Initialize%94
                0x00002e88       0x50
 .text.PORT_Initialize
                0x00002e88       0x50 build/sam_d21_xpro_winc1500/production/_ext/215775307/plib_port.o
                0x00002e88                PORT_Initialize

.text._USARTTransmitEventHandler%95
                0x00002ed8       0x50
 .text._USARTTransmitEventHandler
                0x00002ed8       0x50 build/sam_d21_xpro_winc1500/production/_ext/1756295213/platform_sercom.o

.text.APP_Tasks%96
                0x00002f28       0x50
 .text.APP_Tasks
                0x00002f28       0x50 build/sam_d21_xpro_winc1500/production/_ext/1360937237/app.o
                0x00002f28                APP_Tasks

.text._DRV_SPI_DriverHandleValidate%97
                0x00002f78       0x4c
 .text._DRV_SPI_DriverHandleValidate
                0x00002f78       0x4c build/sam_d21_xpro_winc1500/production/_ext/1062439459/drv_spi.o

.text%98        0x00002fc4       0x48
 .text          0x00002fc4       0x48 c:/program files/microchip/xc32/v2.41/bin/bin/../../lib/gcc/pic32c/6.2.1/crtbegin.o

.text.EIC_InterruptHandler%99
                0x0000300c       0x48
 .text.EIC_InterruptHandler
                0x0000300c       0x48 build/sam_d21_xpro_winc1500/production/_ext/1101428939/plib_eic.o
                0x0000300c                EIC_InterruptHandler

.text.SERCOM5_USART_Write%100
                0x00003054       0x48
 .text.SERCOM5_USART_Write
                0x00003054       0x48 build/sam_d21_xpro_winc1500/production/_ext/1242531425/plib_sercom5_usart.o
                0x00003054                SERCOM5_USART_Write

.text.__libc_init_array%101
                0x0000309c       0x48
 .text.__libc_init_array
                0x0000309c       0x48 c:/program files/microchip/xc32/v2.41/bin/bin/../../lib/gcc/pic32c/6.2.1/../../../../pic32c/lib\libc_nano.a(lib_a-init.o)
                0x0000309c                __libc_init_array

.text.SERCOM5_USART_Read%102
                0x000030e4       0x44
 .text.SERCOM5_USART_Read
                0x000030e4       0x44 build/sam_d21_xpro_winc1500/production/_ext/1242531425/plib_sercom5_usart.o
                0x000030e4                SERCOM5_USART_Read

.text.SYS_TIME_TimerAdd%103
                0x00003128       0x44
 .text.SYS_TIME_TimerAdd
                0x00003128       0x44 build/sam_d21_xpro_winc1500/production/_ext/1751631207/sys_time.o

.text._USARTReceiveEventHandler%104
                0x0000316c       0x44
 .text._USARTReceiveEventHandler
                0x0000316c       0x44 build/sam_d21_xpro_winc1500/production/_ext/1756295213/platform_sercom.o

.text%105       0x000031b0       0x42
 .text          0x000031b0       0x42 c:/program files/microchip/xc32/v2.41/bin/bin/../../lib/gcc/pic32c/6.2.1\libgcc.a(_muldi3.o)
                0x000031b0                __muldi3
                0x000031b0                __aeabi_lmul

.text.TC3_TimerInitialize%106
                0x000031f4       0x40
 .text.TC3_TimerInitialize
                0x000031f4       0x40 build/sam_d21_xpro_winc1500/production/_ext/1143908167/plib_tc3.o
                0x000031f4                TC3_TimerInitialize

.text.SYS_TIME_GetTimerObject%107
                0x00003234       0x40
 .text.SYS_TIME_GetTimerObject
                0x00003234       0x40 build/sam_d21_xpro_winc1500/production/_ext/1751631207/sys_time.o

.text%108       0x00003274       0x40
 .text          0x00003274       0x40 c:/program files/microchip/xc32/v2.41/bin/bin/../../lib/gcc/pic32c/6.2.1\libgcc.a(_aeabi_uldivmod.o)
                0x00003274                __aeabi_uldivmod

.text.SYS_TIME_TimerDestroy%109
                0x000032b4       0x3e
 .text.SYS_TIME_TimerDestroy
                0x000032b4       0x3e build/sam_d21_xpro_winc1500/production/_ext/1751631207/sys_time.o
                0x000032b4                SYS_TIME_TimerDestroy

.text._WDRV_WINC_SPITransferEventHandler%110
                0x000032f4       0x3c
 .text._WDRV_WINC_SPITransferEventHandler
                0x000032f4       0x3c build/sam_d21_xpro_winc1500/production/_ext/1837088568/wdrv_winc_spi.o

.text.SERCOM4_SPI_Initialize%111
                0x00003330       0x3c
 .text.SERCOM4_SPI_Initialize
                0x00003330       0x3c build/sam_d21_xpro_winc1500/production/_ext/1670897031/plib_sercom4_spi_master.o
                0x00003330                SERCOM4_SPI_Initialize

.text.SYS_INT_SourceDisable%112
                0x0000336c       0x3c
 .text.SYS_INT_SourceDisable
                0x0000336c       0x3c build/sam_d21_xpro_winc1500/production/_ext/720072173/sys_int.o
                0x0000336c                SYS_INT_SourceDisable

.text%113       0x000033a8       0x3c
 .text          0x000033a8       0x3c c:/program files/microchip/xc32/v2.41/bin/bin/../../lib/gcc/pic32c/6.2.1\libgcc.a(_clzsi2.o)
                0x000033a8                __clzsi2

.text.DRV_SPI_TransferEventHandlerSet%114
                0x000033e4       0x38
 .text.DRV_SPI_TransferEventHandlerSet
                0x000033e4       0x38 build/sam_d21_xpro_winc1500/production/_ext/1062439459/drv_spi.o
                0x000033e4                DRV_SPI_TransferEventHandlerSet

.text.hif_chip_wake%115
                0x0000341c       0x38
 .text.hif_chip_wake
                0x0000341c       0x38 build/sam_d21_xpro_winc1500/production/_ext/386821479/m2m_hif.o
                0x0000341c                hif_chip_wake

.text.nm_spi_reset%116
                0x00003454       0x38
 .text.nm_spi_reset
                0x00003454       0x38 build/sam_d21_xpro_winc1500/production/_ext/386821479/nmspi.o
                0x00003454                nm_spi_reset

.text.SYS_TIME_UpdateTimerList%117
                0x0000348c       0x38
 .text.SYS_TIME_UpdateTimerList
                0x0000348c       0x38 build/sam_d21_xpro_winc1500/production/_ext/1751631207/sys_time.o

.text.hif_set_rx_done%118
                0x000034c4       0x34
 .text.hif_set_rx_done
                0x000034c4       0x34 build/sam_d21_xpro_winc1500/production/_ext/386821479/m2m_hif.o

.text.hif_chip_sleep%119
                0x000034f8       0x34
 .text.hif_chip_sleep
                0x000034f8       0x34 build/sam_d21_xpro_winc1500/production/_ext/386821479/m2m_hif.o
                0x000034f8                hif_chip_sleep

.text.nm_drv_init_download_mode%120
                0x0000352c       0x34
 .text.nm_drv_init_download_mode
                0x0000352c       0x34 build/sam_d21_xpro_winc1500/production/_ext/386821479/nmdrv.o
                0x0000352c                nm_drv_init_download_mode

.rodata.spi_cmd%121
                0x00003560       0x34
 .rodata.spi_cmd
                0x00003560       0x34 build/sam_d21_xpro_winc1500/production/_ext/386821479/nmspi.o

.text.SERCOM4_SPI_IsBusy%122
                0x00003594       0x34
 .text.SERCOM4_SPI_IsBusy
                0x00003594       0x34 build/sam_d21_xpro_winc1500/production/_ext/1670897031/plib_sercom4_spi_master.o
                0x00003594                SERCOM4_SPI_IsBusy

.text.SYS_TIME_ResourceLock%123
                0x000035c8       0x34
 .text.SYS_TIME_ResourceLock
                0x000035c8       0x34 build/sam_d21_xpro_winc1500/production/_ext/1751631207/sys_time.o

.text.SYS_TIME_ResourceUnlock%124
                0x000035fc       0x30
 .text.SYS_TIME_ResourceUnlock
                0x000035fc       0x30 build/sam_d21_xpro_winc1500/production/_ext/1751631207/sys_time.o

.rodata.drvSPI0InitData%125
                0x0000362c       0x30
 .rodata.drvSPI0InitData
                0x0000362c       0x30 build/sam_d21_xpro_winc1500/production/_ext/281389274/initialization.o
                0x0000362c                drvSPI0InitData

.rodata.platformUsartPlibAPI%126
                0x0000365c       0x2c
 .rodata.platformUsartPlibAPI
                0x0000365c       0x2c build/sam_d21_xpro_winc1500/production/_ext/1923882300/platform_sercom_data.o
                0x0000365c                platformUsartPlibAPI

.text.SYS_TIME_TimerPeriodHasExpired%127
                0x00003688       0x2a
 .text.SYS_TIME_TimerPeriodHasExpired
                0x00003688       0x2a build/sam_d21_xpro_winc1500/production/_ext/1751631207/sys_time.o
                0x00003688                SYS_TIME_TimerPeriodHasExpired

.text.spi_reset%128
                0x000036b2       0x28
 .text.spi_reset
                0x000036b2       0x28 build/sam_d21_xpro_winc1500/production/_ext/386821479/nmspi.o

.text.nm_reset%129
                0x000036da       0x26
 .text.nm_reset
                0x000036da       0x26 build/sam_d21_xpro_winc1500/production/_ext/418110372/nm_common.o
                0x000036da                nm_reset

.text.SERCOM5_USART_ErrorClear%130
                0x00003700       0x24
 .text.SERCOM5_USART_ErrorClear
                0x00003700       0x24 build/sam_d21_xpro_winc1500/production/_ext/1242531425/plib_sercom5_usart.o

.text.TC3_TimerInterruptHandler%131
                0x00003724       0x24
 .text.TC3_TimerInterruptHandler
                0x00003724       0x24 build/sam_d21_xpro_winc1500/production/_ext/1143908167/plib_tc3.o
                0x00003724                TC3_TimerInterruptHandler

.text.SYS_TIME_GetElapsedCount%132
                0x00003748       0x24
 .text.SYS_TIME_GetElapsedCount
                0x00003748       0x24 build/sam_d21_xpro_winc1500/production/_ext/1751631207/sys_time.o

.rodata.drvSPI0remapDataBits%133
                0x0000376c       0x24
 .rodata.drvSPI0remapDataBits
                0x0000376c       0x24 build/sam_d21_xpro_winc1500/production/_ext/281389274/initialization.o
                0x0000376c                drvSPI0remapDataBits

.text.WDRV_MSDelay%134
                0x00003790       0x22
 .text.WDRV_MSDelay
                0x00003790       0x22 build/sam_d21_xpro_winc1500/production/_ext/1879120711/wdrv_winc_osal.o
                0x00003790                WDRV_MSDelay

.text.m2m_wifi_download_mode%135
                0x000037b4       0x20
 .text.m2m_wifi_download_mode
                0x000037b4       0x20 build/sam_d21_xpro_winc1500/production/_ext/386821479/m2m_wifi.o
                0x000037b4                m2m_wifi_download_mode

.text.TC3_Timer16bitCounterGet%136
                0x000037d4       0x20
 .text.TC3_Timer16bitCounterGet
                0x000037d4       0x20 build/sam_d21_xpro_winc1500/production/_ext/1143908167/plib_tc3.o
                0x000037d4                TC3_Timer16bitCounterGet

.text.WDRV_WINC_Initialize%137
                0x000037f4       0x1c
 .text.WDRV_WINC_Initialize
                0x000037f4       0x1c build/sam_d21_xpro_winc1500/production/_ext/2003669979/wdrv_winc.o
                0x000037f4                WDRV_WINC_Initialize

.text.SERCOM5_USART_ErrorGet%138
                0x00003810       0x1c
 .text.SERCOM5_USART_ErrorGet
                0x00003810       0x1c build/sam_d21_xpro_winc1500/production/_ext/1242531425/plib_sercom5_usart.o
                0x00003810                SERCOM5_USART_ErrorGet

.rodata.platformInterruptSources%139
                0x0000382c       0x1c
 .rodata.platformInterruptSources
                0x0000382c       0x1c build/sam_d21_xpro_winc1500/production/_ext/1923882300/platform_sercom_data.o
                0x0000382c                platformInterruptSources

.text.SYS_INT_SourceRestore%140
                0x00003848       0x1c
 .text.SYS_INT_SourceRestore
                0x00003848       0x1c build/sam_d21_xpro_winc1500/production/_ext/720072173/sys_int.o
                0x00003848                SYS_INT_SourceRestore

.text.SYS_TIME_Counter64Update%141
                0x00003864       0x1c
 .text.SYS_TIME_Counter64Update
                0x00003864       0x1c build/sam_d21_xpro_winc1500/production/_ext/1751631207/sys_time.o

.rodata.sysTimePlibAPI%142
                0x00003880       0x1c
 .rodata.sysTimePlibAPI
                0x00003880       0x1c build/sam_d21_xpro_winc1500/production/_ext/281389274/initialization.o
                0x00003880                sysTimePlibAPI

.text.nm_drv_init_hold%143
                0x0000389c       0x1a
 .text.nm_drv_init_hold
                0x0000389c       0x1a build/sam_d21_xpro_winc1500/production/_ext/386821479/nmdrv.o
                0x0000389c                nm_drv_init_hold

.text.m2m_wifi_init_hold%144
                0x000038b8       0x18
 .text.m2m_wifi_init_hold
                0x000038b8       0x18 build/sam_d21_xpro_winc1500/production/_ext/386821479/m2m_wifi.o
                0x000038b8                m2m_wifi_init_hold

.text.TC3_TimerStart%145
                0x000038d0       0x18
 .text.TC3_TimerStart
                0x000038d0       0x18 build/sam_d21_xpro_winc1500/production/_ext/1143908167/plib_tc3.o
                0x000038d0                TC3_TimerStart

.text.TC3_TimerStop%146
                0x000038e8       0x18
 .text.TC3_TimerStop
                0x000038e8       0x18 build/sam_d21_xpro_winc1500/production/_ext/1143908167/plib_tc3.o
                0x000038e8                TC3_TimerStop

.text.SYS_TIME_DelayIsComplete%147
                0x00003900       0x18
 .text.SYS_TIME_DelayIsComplete
                0x00003900       0x18 build/sam_d21_xpro_winc1500/production/_ext/1751631207/sys_time.o
                0x00003900                SYS_TIME_DelayIsComplete

.rodata.drvSPI0InterruptSources%148
                0x00003918       0x18
 .rodata.drvSPI0InterruptSources
                0x00003918       0x18 build/sam_d21_xpro_winc1500/production/_ext/281389274/initialization.o
                0x00003918                drvSPI0InterruptSources

.text.SerialBridge_PlatformInit%149
                0x00003930       0x18
 .text.SerialBridge_PlatformInit
                0x00003930       0x18 build/sam_d21_xpro_winc1500/production/_ext/1756295213/platform_sercom.o
                0x00003930                SerialBridge_PlatformInit

.rodata._ProcessCommand%150
                0x00003948       0x18
 .rodata._ProcessCommand
                0x00003948       0x18 build/sam_d21_xpro_winc1500/production/_ext/1891040070/serial_bridge.o

.text.SerialBridge_Init%151
                0x00003960       0x18
 .text.SerialBridge_Init
                0x00003960       0x18 build/sam_d21_xpro_winc1500/production/_ext/1891040070/serial_bridge.o
                0x00003960                SerialBridge_Init

.text%152       0x00003978       0x48
 .text          0x00003978       0x18 c:/program files/microchip/xc32/v2.41/bin/bin/../../lib/gcc/pic32c/6.2.1\libgcc.a(_lshrdi3.o)
                0x00003978                __lshrdi3
                0x00003978                __aeabi_llsr
 .text          0x00003990       0x18 c:/program files/microchip/xc32/v2.41/bin/bin/../../lib/gcc/pic32c/6.2.1\libgcc.a(_ashldi3.o)
                0x00003990                __aeabi_llsl
                0x00003990                __ashldi3
 .text          0x000039a8       0x18 c:/program files/microchip/xc32/v2.41/bin/bin/../../lib/gcc/pic32c/6.2.1\libgcc.a(_clzdi2.o)
                0x000039a8                __clzdi2

.text.SerialBridge_PlatformUARTWritePutByte%155
                0x000039c0       0x16
 .text.SerialBridge_PlatformUARTWritePutByte
                0x000039c0       0x16 build/sam_d21_xpro_winc1500/production/_ext/1756295213/platform_sercom.o
                0x000039c0                SerialBridge_PlatformUARTWritePutByte

.text._DRV_SPI_RemoveTransferObjFromList%156
                0x000039d6       0x14
 .text._DRV_SPI_RemoveTransferObjFromList
                0x000039d6       0x14 build/sam_d21_xpro_winc1500/production/_ext/1062439459/drv_spi.o

.text.TC3_Timer16bitPeriodSet%157
                0x000039ec       0x14
 .text.TC3_Timer16bitPeriodSet
                0x000039ec       0x14 build/sam_d21_xpro_winc1500/production/_ext/1143908167/plib_tc3.o
                0x000039ec                TC3_Timer16bitPeriodSet

.text.TC3_Timer16bitCompareSet%158
                0x00003a00       0x14
 .text.TC3_Timer16bitCompareSet
                0x00003a00       0x14 build/sam_d21_xpro_winc1500/production/_ext/1143908167/plib_tc3.o
                0x00003a00                TC3_Timer16bitCompareSet

.text.SYS_INT_Restore%159
                0x00003a14       0x14
 .text.SYS_INT_Restore
                0x00003a14       0x14 build/sam_d21_xpro_winc1500/production/_ext/720072173/sys_int.o
                0x00003a14                SYS_INT_Restore

.text.SYS_Tasks%160
                0x00003a28       0x14
 .text.SYS_Tasks
                0x00003a28       0x14 build/sam_d21_xpro_winc1500/production/_ext/281389274/tasks.o
                0x00003a28                SYS_Tasks

.text.APP_Initialize%161
                0x00003a3c       0x14
 .text.APP_Initialize
                0x00003a3c       0x14 build/sam_d21_xpro_winc1500/production/_ext/1360937237/app.o
                0x00003a3c                APP_Initialize

.text.DRV_SPI_WriteTransferAdd%162
                0x00003a50       0x12
 .text.DRV_SPI_WriteTransferAdd
                0x00003a50       0x12 build/sam_d21_xpro_winc1500/production/_ext/1062439459/drv_spi.o
                0x00003a50                DRV_SPI_WriteTransferAdd

.text.SYS_INT_Disable%163
                0x00003a62       0x12
 .text.SYS_INT_Disable
                0x00003a62       0x12 build/sam_d21_xpro_winc1500/production/_ext/720072173/sys_int.o
                0x00003a62                SYS_INT_Disable

.text.memcpy%164
                0x00003a74       0x12
 .text.memcpy   0x00003a74       0x12 c:/program files/microchip/xc32/v2.41/bin/bin/../../lib/gcc/pic32c/6.2.1/../../../../pic32c/lib\libc_nano.a(lib_a-memcpy-stub.o)
                0x00003a74                memcpy

.text.WDRV_WINC_GPIOResetAssert%165
                0x00003a88       0x10
 .text.WDRV_WINC_GPIOResetAssert
                0x00003a88       0x10 build/sam_d21_xpro_winc1500/production/_ext/1115528141/wdrv_winc_gpio.o
                0x00003a88                WDRV_WINC_GPIOResetAssert

.text.WDRV_WINC_GPIOResetDeassert%166
                0x00003a98       0x10
 .text.WDRV_WINC_GPIOResetDeassert
                0x00003a98       0x10 build/sam_d21_xpro_winc1500/production/_ext/1115528141/wdrv_winc_gpio.o
                0x00003a98                WDRV_WINC_GPIOResetDeassert

.text.WDRV_WINC_GPIOChipEnableAssert%167
                0x00003aa8       0x10
 .text.WDRV_WINC_GPIOChipEnableAssert
                0x00003aa8       0x10 build/sam_d21_xpro_winc1500/production/_ext/1115528141/wdrv_winc_gpio.o
                0x00003aa8                WDRV_WINC_GPIOChipEnableAssert

.text.WDRV_WINC_GPIOChipEnableDeassert%168
                0x00003ab8       0x10
 .text.WDRV_WINC_GPIOChipEnableDeassert
                0x00003ab8       0x10 build/sam_d21_xpro_winc1500/production/_ext/1115528141/wdrv_winc_gpio.o
                0x00003ab8                WDRV_WINC_GPIOChipEnableDeassert

.text.nm_bus_iface_init%169
                0x00003ac8       0x10
 .text.nm_bus_iface_init
                0x00003ac8       0x10 build/sam_d21_xpro_winc1500/production/_ext/386821479/nmbus.o
                0x00003ac8                nm_bus_iface_init

.text.nm_spi_read_reg%170
                0x00003ad8       0x10
 .text.nm_spi_read_reg
                0x00003ad8       0x10 build/sam_d21_xpro_winc1500/production/_ext/386821479/nmspi.o
                0x00003ad8                nm_spi_read_reg

.text.SERCOM5_USART_ReadIsBusy%171
                0x00003ae8       0x10
 .text.SERCOM5_USART_ReadIsBusy
                0x00003ae8       0x10 build/sam_d21_xpro_winc1500/production/_ext/1242531425/plib_sercom5_usart.o
                0x00003ae8                SERCOM5_USART_ReadIsBusy

.rodata.drvSPI0PlibAPI%172
                0x00003af8       0x10
 .rodata.drvSPI0PlibAPI
                0x00003af8       0x10 build/sam_d21_xpro_winc1500/production/_ext/281389274/initialization.o
                0x00003af8                drvSPI0PlibAPI

.text.memset%173
                0x00003b08       0x10
 .text.memset   0x00003b08       0x10 c:/program files/microchip/xc32/v2.41/bin/bin/../../lib/gcc/pic32c/6.2.1/../../../../pic32c/lib\libc_nano.a(lib_a-memset.o)
                0x00003b08                memset

.text.main%174  0x00003b18        0xe
 .text.main     0x00003b18        0xe build/sam_d21_xpro_winc1500/production/_ext/1360937237/main.o
                0x00003b18                main

.text.nm_spi_lock_init%175
                0x00003b28        0xc
 .text.nm_spi_lock_init
                0x00003b28        0xc build/sam_d21_xpro_winc1500/production/_ext/386821479/nmspi.o
                0x00003b28                nm_spi_lock_init

.text.NVMCTRL_Initialize%176
                0x00003b34        0xc
 .text.NVMCTRL_Initialize
                0x00003b34        0xc build/sam_d21_xpro_winc1500/production/_ext/1311483782/plib_nvmctrl.o
                0x00003b34                NVMCTRL_Initialize

.text.PORT_GroupWrite%177
                0x00003b40        0xc
 .text.PORT_GroupWrite
                0x00003b40        0xc build/sam_d21_xpro_winc1500/production/_ext/215775307/plib_port.o
                0x00003b40                PORT_GroupWrite

.text.SERCOM4_SPI_CallbackRegister%178
                0x00003b4c        0xc
 .text.SERCOM4_SPI_CallbackRegister
                0x00003b4c        0xc build/sam_d21_xpro_winc1500/production/_ext/1670897031/plib_sercom4_spi_master.o
                0x00003b4c                SERCOM4_SPI_CallbackRegister

.text.SERCOM5_USART_WriteIsBusy%179
                0x00003b58        0xc
 .text.SERCOM5_USART_WriteIsBusy
                0x00003b58        0xc build/sam_d21_xpro_winc1500/production/_ext/1242531425/plib_sercom5_usart.o
                0x00003b58                SERCOM5_USART_WriteIsBusy

.text.SERCOM5_USART_WriteCountGet%180
                0x00003b64        0xc
 .text.SERCOM5_USART_WriteCountGet
                0x00003b64        0xc build/sam_d21_xpro_winc1500/production/_ext/1242531425/plib_sercom5_usart.o
                0x00003b64                SERCOM5_USART_WriteCountGet

.text.SERCOM5_USART_WriteCallbackRegister%181
                0x00003b70        0xc
 .text.SERCOM5_USART_WriteCallbackRegister
                0x00003b70        0xc build/sam_d21_xpro_winc1500/production/_ext/1242531425/plib_sercom5_usart.o
                0x00003b70                SERCOM5_USART_WriteCallbackRegister

.text.SERCOM5_USART_ReadCountGet%182
                0x00003b7c        0xc
 .text.SERCOM5_USART_ReadCountGet
                0x00003b7c        0xc build/sam_d21_xpro_winc1500/production/_ext/1242531425/plib_sercom5_usart.o
                0x00003b7c                SERCOM5_USART_ReadCountGet

.text.SERCOM5_USART_ReadCallbackRegister%183
                0x00003b88        0xc
 .text.SERCOM5_USART_ReadCallbackRegister
                0x00003b88        0xc build/sam_d21_xpro_winc1500/production/_ext/1242531425/plib_sercom5_usart.o
                0x00003b88                SERCOM5_USART_ReadCallbackRegister

.text.TC3_TimerCallbackRegister%184
                0x00003b94        0xc
 .text.TC3_TimerCallbackRegister
                0x00003b94        0xc build/sam_d21_xpro_winc1500/production/_ext/1143908167/plib_tc3.o
                0x00003b94                TC3_TimerCallbackRegister

.text.nm_sleep%185
                0x00003ba0        0x8
 .text.nm_sleep
                0x00003ba0        0x8 build/sam_d21_xpro_winc1500/production/_ext/418110372/nm_common.o
                0x00003ba0                nm_sleep

.text.m2m_wifi_handle_events%186
                0x00003ba8        0x8
 .text.m2m_wifi_handle_events
                0x00003ba8        0x8 build/sam_d21_xpro_winc1500/production/_ext/386821479/m2m_wifi.o
                0x00003ba8                m2m_wifi_handle_events

.text.nm_bus_reset%187
                0x00003bb0        0x8
 .text.nm_bus_reset
                0x00003bb0        0x8 build/sam_d21_xpro_winc1500/production/_ext/386821479/nmbus.o
                0x00003bb0                nm_bus_reset

.text.nm_read_reg%188
                0x00003bb8        0x8
 .text.nm_read_reg
                0x00003bb8        0x8 build/sam_d21_xpro_winc1500/production/_ext/386821479/nmbus.o
                0x00003bb8                nm_read_reg

.text.nm_read_reg_with_ret%189
                0x00003bc0        0x8
 .text.nm_read_reg_with_ret
                0x00003bc0        0x8 build/sam_d21_xpro_winc1500/production/_ext/386821479/nmbus.o
                0x00003bc0                nm_read_reg_with_ret

.text.nm_write_reg%190
                0x00003bc8        0x8
 .text.nm_write_reg
                0x00003bc8        0x8 build/sam_d21_xpro_winc1500/production/_ext/386821479/nmbus.o
                0x00003bc8                nm_write_reg

.text.TC3_TimerFrequencyGet%191
                0x00003bd0        0x8
 .text.TC3_TimerFrequencyGet
                0x00003bd0        0x8 build/sam_d21_xpro_winc1500/production/_ext/1143908167/plib_tc3.o
                0x00003bd0                TC3_TimerFrequencyGet

.rodata.drvSPI0remapClockPhase%192
                0x00003bd8        0x8
 .rodata.drvSPI0remapClockPhase
                0x00003bd8        0x8 build/sam_d21_xpro_winc1500/production/_ext/281389274/initialization.o
                0x00003bd8                drvSPI0remapClockPhase

.rodata.drvSPI0remapClockPolarity%193
                0x00003be0        0x8
 .rodata.drvSPI0remapClockPolarity
                0x00003be0        0x8 build/sam_d21_xpro_winc1500/production/_ext/281389274/initialization.o
                0x00003be0                drvSPI0remapClockPolarity

.rodata.sysTimeInitData%194
                0x00003be8        0x8
 .rodata.sysTimeInitData
                0x00003be8        0x8 build/sam_d21_xpro_winc1500/production/_ext/281389274/initialization.o
                0x00003be8                sysTimeInitData

.text.WDRV_WINC_Status%195
                0x00003bf0        0x6
 .text.WDRV_WINC_Status
                0x00003bf0        0x6 build/sam_d21_xpro_winc1500/production/_ext/2003669979/wdrv_winc.o
                0x00003bf0                WDRV_WINC_Status

.rodata%196     0x00003bf6        0x4
 .rodata        0x00003bf6        0x4 build/sam_d21_xpro_winc1500/production/_ext/386821479/nmspi.o

.text%197       0x00003bfc        0x4
 .text          0x00003bfc        0x4 c:/program files/microchip/xc32/v2.41/bin/bin/../../lib/gcc/pic32c/6.2.1\libgcc.a(_dvmd_tls.o)
                0x00003bfc                __aeabi_idiv0
                0x00003bfc                __aeabi_ldiv0

.text.EVSYS_Initialize%198
                0x0000159e        0x2
 .text.EVSYS_Initialize
                0x0000159e        0x2 build/sam_d21_xpro_winc1500/production/_ext/1910849038/plib_evsys.o
                0x0000159e                EVSYS_Initialize

.text.SYS_DMA_AddressingModeSetup%199
                0x00001da2        0x2
 .text.SYS_DMA_AddressingModeSetup
                0x00001da2        0x2 build/sam_d21_xpro_winc1500/production/_ext/676678561/sys_dma.o
                0x00001da2                SYS_DMA_AddressingModeSetup

.text.SYS_DMA_DataWidthSetup%200
                0x000023f6        0x2
 .text.SYS_DMA_DataWidthSetup
                0x000023f6        0x2 build/sam_d21_xpro_winc1500/production/_ext/676678561/sys_dma.o
                0x000023f6                SYS_DMA_DataWidthSetup

.text.Dummy_Handler%201
                0x000027c2        0x2
 .text.Dummy_Handler
                0x000027c2        0x2 build/sam_d21_xpro_winc1500/production/_ext/281389274/interrupts.o
                0x000027c2                SVCall_Handler
                0x000027c2                DMAC_Handler
                0x000027c2                AC_Handler
                0x000027c2                SysTick_Handler
                0x000027c2                PendSV_Handler
                0x000027c2                SERCOM1_Handler
                0x000027c2                ADC_Handler
                0x000027c2                TCC1_Handler
                0x000027c2                SERCOM2_Handler
                0x000027c2                TCC0_Handler
                0x000027c2                RTC_Handler
                0x000027c2                WDT_Handler
                0x000027c2                TC4_Handler
                0x000027c2                USB_Handler
                0x000027c2                Dummy_Handler
                0x000027c2                PM_Handler
                0x000027c2                TCC2_Handler
                0x000027c2                EVSYS_Handler
                0x000027c2                SERCOM3_Handler
                0x000027c2                I2S_Handler
                0x000027c2                NVMCTRL_Handler
                0x000027c2                SERCOM0_Handler
                0x000027c2                DAC_Handler
                0x000027c2                PTC_Handler
                0x000027c2                TC5_Handler
                0x000027c2                SYSCTRL_Handler

.text.NonMaskableInt_Handler%202
                0x00002bda        0x2
 .text.NonMaskableInt_Handler
                0x00002bda        0x2 build/sam_d21_xpro_winc1500/production/_ext/281389274/exceptions.o
                0x00002bda                NonMaskableInt_Handler

.text.HardFault_Handler%203
                0x000031f2        0x2
 .text.HardFault_Handler
                0x000031f2        0x2 build/sam_d21_xpro_winc1500/production/_ext/281389274/exceptions.o
                0x000031f2                HardFault_Handler
